
temp/firmware_disassembly.txt.o:     file format elf32-littlearm

Contents of section .group:
 0000 01000000 15000000 16000000           ............    
Contents of section .group:
 0000 01000000 17000000 18000000           ............    
Contents of section .group:
 0000 01000000 19000000 1a000000           ............    
Contents of section .group:
 0000 01000000 1b000000 1c000000           ............    
Contents of section .group:
 0000 01000000 1d000000 1e000000           ............    
Contents of section .group:
 0000 01000000 1f000000 20000000           ........ ...    
Contents of section .group:
 0000 01000000 21000000 22000000           ....!..."...    
Contents of section .text:
 0000 04b02de5 00b08de2 0000a0e1 00d08be2  ..-.............
 0010 04b09de4 1eff2fe1 04b02de5 00b08de2  ....../...-.....
 0020 1cd04de2 18000be5 0030a0e3 08300be5  ..M......0...0..
 0030 0030a0e3 0c300be5 0c0000ea 08301be5  .0...0.......0..
 0040 013083e2 08300be5 0c301be5 18201be5  .0...0...0... ..
 0050 033082e0 0020d3e5 0c301be5 023283e2  .0... ...0...2..
 0060 002083e5 0c301be5 013083e2 0c300be5  . ...0...0...0..
 0070 0c301be5 18201be5 033082e0 0030d3e5  .0... ...0...0..
 0080 000053e3 ecffff1a 08301be5 002073e2  ..S......0... s.
 0090 0f3003e2 0f2002e2 00306252 103063e2  .0... ...0bR.0c.
 00a0 08300be5 0030a0e3 10300be5 090000ea  .0...0...0......
 00b0 0c201be5 10301be5 033082e0 023283e2  . ...0...0...2..
 00c0 0320a0e1 2030a0e3 003082e5 10301be5  . .. 0...0...0..
 00d0 013083e2 10300be5 10201be5 08301be5  .0...0... ...0..
 00e0 030052e1 f1ffffba 0000a0e1 0000a0e1  ..R.............
 00f0 00d08be2 04b09de4 1eff2fe1 00482de9  ........../..H-.
 0100 04b08de2 10d04de2 24309fe5 08300be5  ......M.$0...0..
 0110 20309fe5 0c300be5 1c309fe5 10300be5   0...0...0...0..
 0120 08301be5 14009fe5 0fe0a0e1 13ff2fe1  .0............/.
 0130 feffffea 00000000 00000000 00000000  ................
 0140 00000000                             ....            
Contents of section .rodata:
 0000 48656c6c 6f00                        Hello.          
Contents of section .debug_info:
 0000 72010000 02000000 00000401 9b200000  r............ ..
 0010 0c3b2a00 00420900 00000000 00440100  .;*..B.......D..
 0020 00000000 00000000 00020106 ab0b0000  ................
 0030 020108b8 32000002 02058d28 00000202  ....2......(....
 0040 07f53700 00020405 74290000 03063300  ..7.....t)....3.
 0050 00024f19 58000000 02040735 30000002  ..O.X......50...
 0060 0805bf1d 00000208 07880f00 00040405  ................
 0070 696e7400 02040782 04000003 340c0000  int.........4...
 0080 0330144c 00000005 01882f00 00011a05  .0.L....../.....
 0090 6d000000 fc000000 44010000 00000000  m.......D.......
 00a0 01de0000 00067230 00011c09 6d000000  ......r0....m...
 00b0 07ac3700 00012c10 fb000000 02917407  ..7...,.......t.
 00c0 9f120000 012e10fb 00000002 917007a6  .............p..
 00d0 12000001 2f10fb00 00000291 6c000801  ..../.......l...
 00e0 7b000000 ee000000 09ee0000 00000a04  {...............
 00f0 f4000000 02010897 0100000a 04de0000  ................
 0100 000b013e 28000001 0a060118 000000fc  ...>(...........
 0110 0000002c 00000001 5f010000 0c737472  ...,...._....str
 0120 00010a12 ee000000 02916407 560e0000  ..........d.V...
 0130 010c096d 00000002 91740d69 00010d09  ...m.....t.i....
 0140 6d000000 0291700e a4000000 e8000000  m.....p.........
 0150 0d6a0001 150e6d00 00000291 6c00000f  .j....m.....l...
 0160 01423800 00010406 00000000 18000000  .B8.............
 0170 70000000 0100                        p.....          
Contents of section .debug_abbrev:
 0000 01110125 0e130b03 0e1b0e11 01120110  ...%............
 0010 06994206 00000224 000b0b3e 0b030e00  ..B....$...>....
 0020 00031600 030e3a0b 3b0b390b 49130000  ......:.;.9.I...
 0030 0424000b 0b3e0b03 08000005 2e013f0c  .$...>........?.
 0040 030e3a0b 3b0b390b 49131101 12014006  ..:.;.9.I.....@.
 0050 96420c01 13000006 34000308 3a0b3b0b  .B......4...:.;.
 0060 390b4913 00000734 00030e3a 0b3b0b39  9.I....4...:.;.9
 0070 0b491302 0a000008 1501270c 49130113  .I........'.I...
 0080 00000905 00491300 000a0f00 0b0b4913  .....I........I.
 0090 00000b2e 013f0c03 0e3a0b3b 0b390b27  .....?...:.;.9.'
 00a0 0c110112 01400697 420c0113 00000c05  .....@..B.......
 00b0 0003083a 0b3b0b39 0b491302 0a00000d  ...:.;.9.I......
 00c0 34000308 3a0b3b0b 390b4913 020a0000  4...:.;.9.I.....
 00d0 0e0b0111 01120100 000f2e00 3f0c030e  ............?...
 00e0 3a0b3b0b 390b1101 12014006 97420c00  :.;.9.....@..B..
 00f0 0000                                 ..              
Contents of section .debug_loc:
 0000 fc000000 00010000 02007d00 00010000  ..........}.....
 0010 04010000 02007d08 04010000 44010000  ......}.....D...
 0020 02007b04 00000000 00000000 18000000  ..{.............
 0030 1c000000 02007d00 1c000000 20000000  ......}..... ...
 0040 02007d04 20000000 f4000000 02007b04  ..}. .........{.
 0050 f4000000 f8000000 02007d04 f8000000  ..........}.....
 0060 fc000000 02007d00 00000000 00000000  ......}.........
 0070 00000000 04000000 02007d00 04000000  ..........}.....
 0080 08000000 02007d04 08000000 10000000  ......}.........
 0090 02007b04 10000000 14000000 02007d04  ..{...........}.
 00a0 14000000 18000000 02007d00 00000000  ..........}.....
 00b0 00000000                             ....            
Contents of section .debug_aranges:
 0000 1c000000 02000000 00000400 00000000  ................
 0010 00000000 44010000 00000000 00000000  ....D...........
Contents of section .debug_macro:
 0000 04000200 00000007 00000000 03000103  ................
 0010 01040309 05050aac 13000003 0c020506  ................
 0020 b4280000 03080605 16770f00 00031c07  .(.......w......
 0030 07000000 00040700 00000004 07000000  ................
 0040 0004030d 08070000 00000403 0e030700  ................
 0050 00000004 07000000 0004050d 3d0c0000  ............=...
 0060 040502d0 24000005 03cf2800 000400    ....$.....(.... 
Contents of section .debug_macro:
 0000 04000005 000e2100 0005001c 30000005  ......!.....0...
 0010 00b42300 00050030 09000005 001e3100  ..#....0......1.
 0020 00050058 0f000005 00710400 0005009f  ...X.....q......
 0030 22000005 00543800 0005001d 0a000005  "....T8.........
 0040 00a50700 0005003b 20000005 007f0600  .......; .......
 0050 00050079 32000005 005b2100 00050076  ...y2....[!....v
 0060 1e000005 00682800 00050019 21000005  .....h(.....!...
 0070 00922c00 000500e0 07000005 00cf1300  ..,.............
 0080 0005008b 22000005 006f0500 00050038  ...."....o.....8
 0090 05000005 00cd1d00 000500af 14000005  ................
 00a0 00241500 000500bd 05000005 00a72700  .$............'.
 00b0 0005009b 08000005 00e52400 00050035  ..........$....5
 00c0 2e000005 001e3a00 0005000f 34000005  ......:.....4...
 00d0 00b93400 00050092 06000005 00831100  ..4.............
 00e0 000500fb 21000005 008f3600 000500de  ....!.....6.....
 00f0 32000005 004c0500 000500d2 25000005  2....L......%...
 0100 00783b00 000500bf 2a000005 00e30600  .x;.....*.......
 0110 0005001a 29000005 003b1700 000500c2  ....)....;......
 0120 2c000005 006c1600 000500cc 2d000005  ,....l......-...
 0130 00693700 00050021 08000005 00f11b00  .i7....!........
 0140 000500f3 0f000005 008d2d00 0005002d  ..........-....-
 0150 1e000005 009f3800 0005009e 26000005  ......8.....&...
 0160 003b0600 000500e9 10000005 002c1600  .;...........,..
 0170 00050046 36000005 007b0b00 00050070  ...F6....{.....p
 0180 00000005 00ad1800 0005003d 34000005  ...........=4...
 0190 008c3200 0005006a 33000005 00850c00  ..2....j3.......
 01a0 00050050 19000005 00900900 00050083  ...P............
 01b0 27000005 00680600 00050016 22000005  '....h......"...
 01c0 00061700 00050078 2c000005 00012a00  .......x,.....*.
 01d0 000500d9 2a000005 00252300 000500a8  ....*....%#.....
 01e0 0e000005 00470a00 00050058 22000005  .....G.....X"...
 01f0 00df2c00 00050022 2f000005 00ae2500  ..,...."/.....%.
 0200 000500a9 02000005 008f1600 0005002c  ...............,
 0210 28000005 00a72e00 00050030 25000005  (..........0%...
 0220 004a1200 000500bd 36000005 00523b00  .J......6....R;.
 0230 00050057 08000005 008e1b00 00050000  ...W............
 0240 00000005 00622500 00050010 27000005  .....b%.....'...
 0250 00c20f00 0005002f 22000005 00122800  ......./".....(.
 0260 0005009f 0f000005 00bb1a00 000500e1  ................
 0270 1a000005 005c2400 000500b2 1f000005  .....\$.........
 0280 00090800 0005009d 0b000005 00941a00  ................
 0290 00050059 09000005 00871f00 000500d5  ...Y............
 02a0 0b000005 00e63a00 00050080 39000005  ......:.....9...
 02b0 00e43300 000500d7 19000005 00542c00  ..3..........T,.
 02c0 00050001 29000005 00763600 000500c7  ....)....v6.....
 02d0 01000005 001d2d00 0005001a 05000005  ......-.........
 02e0 00562a00 000500ff 13000005 00381000  .V*..........8..
 02f0 00050054 2f000005 00a00500 000500ea  ...T/...........
 0300 38000005 00511d00 000500f4 00000005  8....Q..........
 0310 00ff1f00 0005009c 21000005 004a0d00  ........!....J..
 0320 00050070 3c000005 00051500 0005008d  ...p<...........
 0330 18000005 00152c00 000500eb 2b000005  ......,.....+...
 0340 00693100 00050019 1e000005 00ed3900  .i1...........9.
 0350 0005005c 0e000005 00442400 00050099  ...\.....D$.....
 0360 19000005 000e3600 0005007e 33000005  ......6....~3...
 0370 00631000 00050014 18000005 00ad0d00  .c..............
 0380 00050020 39000005 00b03500 00050065  ... 9.....5....e
 0390 32000005 00581700 000500fc 27000005  2....X......'...
 03a0 006d3400 00050049 23000005 00b81c00  .m4....I#.......
 03b0 0005004e 2d000005 00732600 0005005b  ...N-....s&....[
 03c0 3c000005 00f50a00 0005005e 36000005  <..........^6...
 03d0 00c93500 00050027 06000005 004b1c00  ..5....'.....K..
 03e0 00050091 02000005 00e51800 00050036  ...............6
 03f0 21000005 00b33700 00050088 3c000005  !.....7.....<...
 0400 00d80300 000500cd 04000005 00ba1100  ................
 0410 000500bb 0d000005 00333700 00050009  .........37.....
 0420 3a000005 002f3600 0005008c 10000005  :..../6.........
 0430 00b41b00 000500ca 1e000005 00410700  .............A..
 0440 00050078 24000005 00ee2d00 000500a9  ...x$.....-.....
 0450 29000005 00bb3900 0005006d 39000005  ).....9....m9...
 0460 00312b00 00050050 1e000005 00fc3b00  .1+....P......;.
 0470 00050006 24000005 00413300 000500bf  ....$....A3.....
 0480 12000005 00d23b00 0005002c 24000005  ......;....,$...
 0490 00a62a00 00050088 05000005 00810100  ..*.............
 04a0 00050040 19000005 00611800 000500c2  ...@.....a......
 04b0 08000005 00cf1800 00050086 3a000005  ............:...
 04c0 00541600 00050051 07000005 00cf2700  .T.....Q......'.
 04d0 00050091 34000005 002e0b00 000500bc  ....4...........
 04e0 2e000005 00a30c00 0005003f 00000005  ...........?....
 04f0 00c30e00 00050001 05000005 00410800  .............A..
 0500 00050002 0a000005 00083500 000500a5  ..........5.....
 0510 15000005 00910000 000500ec 12000005  ................
 0520 00331800 00050012 2a000005 00a30900  .3......*.......
 0530 000500e9 11000005 00c83100 000500ba  ..........1.....
 0540 0c000005 00671900 00050026 11000005  .....g.....&....
 0550 00101c00 000500a9 2c000005 00c11700  ........,.......
 0560 000500fa 1c000005 00560400 00050032  .........V.....2
 0570 29000005 00dc0000 000500d3 39000005  )...........9...
 0580 00670200 000500e1 2f000005 00113300  .g....../.....3.
 0590 000500ca 37000005 00e03500 0005003f  ....7.....5....?
 05a0 11000005 00af1900 000500db 0a000005  ................
 05b0 00690300 000500dc 1d000005 00c02500  .i............%.
 05c0 000500f4 25000005 002e1300 0005003f  ....%..........?
 05d0 0f000005 008d2f00 00050041 2c000005  ....../....A,...
 05e0 00d13300 00050017 04000005 00ea1400  ..3.............
 05f0 0005001d 20000005 00403500 000500f5  .... ....@5.....
 0600 23000005 00121200 0005000b 23000005  #...........#...
 0610 00033100 000500c8 16000005 002d0000  ..1..........-..
 0620 00050072 23000005 00230f00 00050097  ...r#....#......
 0630 28000005 002a1c00 000500e5 08000005  (....*..........
 0640 00e32900 000500b0 3a000005 00cc1000  ..).....:.......
 0650 00050044 22000005 00111000 000500fd  ...D"...........
 0660 17000005 00772e00 000500d4 0f000005  .....w..........
 0670 00801a00 00050056 03000005 00903b00  .......V......;.
 0680 000500f9 0c000005 008f2500 00050091  ..........%.....
 0690 24000005 00ee0900 00050073 10000005  $..........s....
 06a0 00d70500 000500b1 3b000005 00711100  ........;....q..
 06b0 00050005 13000005 00002f00 0005008d  ........../.....
 06c0 1e000005 00f61500 00050048 3c000005  ...........H<...
 06d0 00ff1800 00050094 33000005 00e21300  ........3.......
 06e0 00050076 0e000005 001f1a00 000500ad  ...v............
 06f0 12000005 006a2200 00050012 25000005  .....j".....%...
 0700 000c1d00 00050050 1b000005 007a1800  .......P.....z..
 0710 000500a4 10000005 004a2e00 00050082  .........J......
 0720 12000005 00961c00 000500c7 14000005  ................
 0730 00740a00 000500d7 1f000005 006b2f00  .t...........k/.
 0740 00050035 23000005 00521a00 000500c4  ...5#....R......
 0750 0a000005 00f90e00 0005004d 01000005  ...........M....
 0760 00241000 00050079 07000005 00611500  .$.....y.....a..
 0770 00050078 17000005 00a21700 000500e7  ...x............
 0780 34000005 00c62300 0005001b 0c000005  4.....#.........
 0790 00980a00 00050027 3c000005 00343800  .......'<....48.
 07a0 000500f7 01000005 00692c00 00050024  .........i,....$
 07b0 26000005 00bf2900 000500c1 27000005  &.....).....'...
 07c0 00c62600 0005005f 34000005 00962b00  ..&...._4.....+.
 07d0 000500df 1e000005 004a2800 000500d2  .........J(.....
 07e0 2f000005 00a62b00 000500b9 16000005  /.....+.........
 07f0 000c3000 00050059 28000005 00411d00  ..0....Y(....A..
 0800 00050005 02000005 00ae1d00 000500a9  ................
 0810 1c000005 00992e00 0005006f 1d000005  ...........o....
 0820 00961500 000500ea 0c000005 00170e00  ................
 0830 000500a0 14000005 001e0000 00050025  ...............%
 0840 38000005 00ed1e00 000500d5 26000005  8...........&...
 0850 00ab1a00 0005004c 13000005 00151400  .......L........
 0860 00050059 0b000005 007e1b00 000500a0  ...Y.....~......
 0870 35000005 004c1800 0005005c 26000005  5....L.....\&...
 0880 00a21600 000500d8 17000005 00a70600  ................
 0890 00050037 39000005 00fc0600 000500c0  ...79...........
 08a0 02000005 00563000 00050031 1a000005  .....V0....1....
 08b0 00480200 0005002d 12000005 00343b00  .H.....-.....4;.
 08c0 0005001f 32000005 000c0100 00050078  ....2..........x
 08d0 2a000005 00030600 00050033 2f000005  *..........3/...
 08e0 00411500 00050096 1f000005 00833100  .A............1.
 08f0 000500a6 24000005 00e30100 00050017  ....$...........
 0900 13000006 00fd3300 000600b9 10000006  ......3.........
 0910 00062600 000600b8 04000006 000b2d00  ..&...........-.
 0920 00060064 0f000006 004e1400 0006001a  ...d.....N......
 0930 07000006 00723a00 00060051 0c000006  .....r:....Q....
 0940 00400300 000500b7 0b000006 00a73900  .@............9.
 0950 00060069 0b000006 00ca1500 00060012  ...i............
 0960 16000006 00422500 00060072 0c000006  .....B%....r....
 0970 00e83b00 0006009e 3a000006 00d10900  ..;.....:.......
 0980 0006006c 01000005 00260e00 000500fb  ...l.....&......
 0990 02000006 00681f00 000500a8 1e000006  .....h..........
 09a0 00281800 000500f7 08000005 00bb2400  .(............$.
 09b0 000500f8 36000005 000d1f00 0006009c  ....6...........
 09c0 2a000006 009e2900 0006007b 1f000006  *.....)....{....
 09d0 00811c00 0005007d 1d000005 00751c00  .......}.....u..
 09e0 0005009f 31000005 006a2e00 000600f6  ....1....j......
 09f0 1d000006 00120300 000600fd 0b000006  ................
 0a00 00972700 00060088 0d000006 00d33600  ..'...........6.
 0a10 00060030 0a000006 003e1b00 000600d6  ...0.....>......
 0a20 01000006 00670c00 00060093 23000005  .....g......#...
 0a30 002a1900 00050028 1f000005 00182600  .*.....(......&.
 0a40 00050047 30000006 00cb0b00 000600f5  ...G0...........
 0a50 22000006 00ce1a00 0006009f 11000006  "...............
 0a60 00e81700 000500b6 2b000006 00a21b00  ........+.......
 0a70 000600e2 02000006 00140200 0006004f  ...............O
 0a80 29000006 00282700 000600b4 21000005  )....('.....!...
 0a90 00d42200 0005005e 1f000005 00420e00  .."....^.....B..
 0aa0 0000                                 ..              
Contents of section .debug_macro:
 0000 04000005 04f30700 000506b2 1e000005  ................
 0010 078e0800 0005081b 0b000005 09121900  ................
 0020 0000                                 ..              
Contents of section .debug_macro:
 0000 04000005 21840300 0005284d 27000006  ....!.....(M'...
 0010 88014b21 00000589 01e41500 00068d01  ..K!............
 0020 2a050000 058e0152 35000006 8f010704  *......R5.......
 0030 00000590 01b71300 0006a301 0c0b0000  ................
 0040 05a4014b 26000005 8102d434 00000587  ...K&......4....
 0050 02040900 00058f02 44160000 059702eb  ........D.......
 0060 2e000005 a202492b 000005a6 02010e00  ......I+........
 0070 0005ac02 29030000 05bc02fc 1e000005  ....)...........
 0080 cc028102 000005de 02720d00 0000      .........r....  
Contents of section .debug_macro:
 0000 04000005 0fce2900 00051a44 3a000005  ......)....D:...
 0010 21cc0000 00052f94 0e000005 3d392d00  !...../.....=9-.
 0020 00055378 30000005 6d781300 00058c01  ..Sx0...mx......
 0030 62350000 05a60163 1b000005 bc015a1c  b5.....c......Z.
 0040 000005ce 017e1900 0006f401 22350000  .....~......"5..
 0050 00                                   .               
Contents of section .debug_macro:
 0000 04000005 0ab33000 000510ac 31000006  ......0.....1...
 0010 2b8d1300 00062cc1 15000006 2d970100  +.....,.....-...
 0020 00062e44 28000002 2f696e74 000630dd  ...D(.../int..0.
 0030 08000006 31922a00 00063212 0e000005  ....1.*...2.....
 0040 336c0e00 000534fc 34000005 35140900  3l....4.4...5...
 0050 0005361e 06000005 372b2100 000538e4  ..6.....7+!...8.
 0060 26000005 39870800 00053a2c 3b000005  &...9.....:,;...
 0070 43c71900 00054aad 36000005 52872300  C.....J.6...R.#.
 0080 00055d35 2c000005 684a2a00 00057124  ..]5,...hJ*...q$
 0090 2b000005 787a2700 00058101 6e170000  +...xz'.....n...
 00a0 05880113 0a000005 93012d17 00000597  ..........-.....
 00b0 01542500 0005a201 88150000 05ad013d  .T%............=
 00c0 1c000005 b601ee0b 000006b8 018d1300  ................
 00d0 0006b901 c1150000 06ba0197 01000006  ................
 00e0 bb014428 000002bc 01696e74 0006bd01  ..D(.....int....
 00f0 120e0000 06c201dd 08000006 c301922a  ...............*
 0100 000000                               ...             
Contents of section .debug_macro:
 0000 04000005 0ada1400 000515f4 31000005  ............1...
 0010 19063700 00051b2e 07000005 21a12300  ..7.........!.#.
 0020 0005251c 09000005 27792800 00052d83  ..%.....'y(...-.
 0030 2b000005 31600a00 0005336e 21000005  +...1`....3n!...
 0040 39943900 00053d6e 12000005 3f661400  9.9...=n....?f..
 0050 000544ed 0d000005 49862000 00054e8b  ..D.....I. ...N.
 0060 38000005 53303100 0000               8...S01...      
Contents of section .debug_macro:
 0000 04000005 17063200 00051d4e 20000005  ......2....N ...
 0010 23822100 000529ff 1d000005 35580000  #.!...).....5X..
 0020 00053f32 26000005 49f52000 00055372  ..?2&...I. ...Sr
 0030 38000005 80017d29 00000581 01740900  8.....}).....t..
 0040 00058201 cd2b0000 05980108 38000005  .....+......8...
 0050 9901c632 0000059a 01583a00 0005a201  ...2.....X:.....
 0060 8f040000 05a301a8 00000005 a401cb1b  ................
 0070 000005ae 01f12600 0005af01 271d0000  ......&.....'...
 0080 05b0015c 13000005 b801db16 000005b9  ...\............
 0090 01001100 0005ba01 2e040000 05c40100  ................
 00a0 1a000005 c5010a2b 000005c6 01dd0e00  .......+........
 00b0 0005d401 f71a0000 05d5017a 14000005  ...........z....
 00c0 d601bb06 000005e6 01b52200 0005e701  ..........".....
 00d0 f12c0000 05e80122 1b000005 f6019c01  .,....."........
 00e0 000005f7 01c33000 0005f801 b8070000  ......0.........
 00f0 0586023e 32000005 8702c838 00000588  ...>2......8....
 0100 02453100 00059602 d2210000 0597023a  .E1......!.....:
 0110 1f000005 9802063b 000005a6 02251400  .......;.....%..
 0120 0005a702 7c350000 05a8028d 30000005  ....|5......0...
 0130 b602a92f 000005b7 025f2b00 0005b802  .../....._+.....
 0140 ab330000 05c60290 37000005 c7023001  .3......7.....0.
 0150 000005cf 02dc1c00 0005d702 752d0000  ............u-..
 0160 05dd0209 2e000005 de02230d 000005e2  ..........#.....
 0170 02682000 0005e602 01390000 05eb02e9  .h ......9......
 0180 30000005 f602661a 00000580 03553900  0.....f......U9.
 0190 00058503 f22a0000 058c03d0 3a000005  .....*......:...
 01a0 8d038d07 00000598 03941300 00059903  ................
 01b0 941d0000 05a4036f 08000005 a503db23  .......o.......#
 01c0 000005b1 03283500 0005b203 2e020000  .....(5.........
 01d0 05c10319 37000005 c203b02d 000000    ....7......-... 
Contents of section .debug_line:
 0000 49020000 0300d901 00000201 fb0e0d00  I...............
 0010 01010101 00000001 00000173 7263002f  ...........src./
 0020 6f70742f 61726d2d 676e752d 746f6f6c  opt/arm-gnu-tool
 0030 63686169 6e2d3133 2e332e72 656c312d  chain-13.3.rel1-
 0040 7838365f 36342d61 726d2d6e 6f6e652d  x86_64-arm-none-
 0050 65616269 2f61726d 2d6e6f6e 652d6561  eabi/arm-none-ea
 0060 62692f69 6e636c75 64652f6d 61636869  bi/include/machi
 0070 6e65002f 6f70742f 61726d2d 676e752d  ne./opt/arm-gnu-
 0080 746f6f6c 63686169 6e2d3133 2e332e72  toolchain-13.3.r
 0090 656c312d 7838365f 36342d61 726d2d6e  el1-x86_64-arm-n
 00a0 6f6e652d 65616269 2f61726d 2d6e6f6e  one-eabi/arm-non
 00b0 652d6561 62692f69 6e636c75 64652f73  e-eabi/include/s
 00c0 7973002f 6f70742f 61726d2d 676e752d  ys./opt/arm-gnu-
 00d0 746f6f6c 63686169 6e2d3133 2e332e72  toolchain-13.3.r
 00e0 656c312d 7838365f 36342d61 726d2d6e  el1-x86_64-arm-n
 00f0 6f6e652d 65616269 2f6c6962 2f676363  one-eabi/lib/gcc
 0100 2f61726d 2d6e6f6e 652d6561 62692f31  /arm-none-eabi/1
 0110 332e332e 312f696e 636c7564 65002f6f  3.3.1/include./o
 0120 70742f61 726d2d67 6e752d74 6f6f6c63  pt/arm-gnu-toolc
 0130 6861696e 2d31332e 332e7265 6c312d78  hain-13.3.rel1-x
 0140 38365f36 342d6172 6d2d6e6f 6e652d65  86_64-arm-none-e
 0150 6162692f 61726d2d 6e6f6e65 2d656162  abi/arm-none-eab
 0160 692f696e 636c7564 65000030 375f745f  i/include..07_t_
 0170 6269742e 63000100 005f6465 6661756c  bit.c...._defaul
 0180 745f7479 7065732e 68000200 005f7374  t_types.h...._st
 0190 64696e74 2e680003 00007374 64696e74  dint.h....stdint
 01a0 2e680004 00007374 64696e74 2e680005  .h....stdint.h..
 01b0 00006665 61747572 65732e68 00030000  ..features.h....
 01c0 5f6e6577 6c69625f 76657273 696f6e2e  _newlib_version.
 01d0 68000500 005f696e 74737570 2e680003  h...._intsup.h..
 01e0 00000005 01000502 00000000 164e8405  .............N..
 01f0 0983050c 4c05054a 050e3005 24670509  ....L..J..0.$g..
 0200 82051f4a 05220002 04032b05 14000204  ...J."....+.....
 0210 01660518 00020401 82051950 050b9e05  .f.........P....
 0220 0e4b0505 4a050930 05259e05 21000204  .K..J..0.%..!...
 0230 03480517 00020401 66050186 a0051003  .H......f.......
 0240 11664c4b 05054b85 020a0001 01        .fLK..K......   
Contents of section .debug_str:
 0000 5f5f5349 475f4154 4f4d4943 5f4d4158  __SIG_ATOMIC_MAX
 0010 5f5f2030 78376666 66666666 66005f5f  __ 0x7fffffff.__
 0020 54415f46 4249545f 5f203633 005f5f55  TA_FBIT__ 63.__U
 0030 46524143 545f4942 49545f5f 2030005f  FRACT_IBIT__ 0._
 0040 5f464c54 33325f48 41535f49 4e46494e  _FLT32_HAS_INFIN
 0050 4954595f 5f203100 5f5f696e 745f6661  ITY__ 1.__int_fa
 0060 7374385f 745f6465 66696e65 64203100  st8_t_defined 1.
 0070 5f5f5549 4e545f46 41535438 5f545950  __UINT_FAST8_TYP
 0080 455f5f20 756e7369 676e6564 20696e74  E__ unsigned int
 0090 005f5f46 4c543634 5f4d4158 5f455850  .__FLT64_MAX_EXP
 00a0 5f5f2031 30323400 494e545f 4c454153  __ 1024.INT_LEAS
 00b0 54385f4d 41582028 5f5f494e 545f4c45  T8_MAX (__INT_LE
 00c0 41535438 5f4d4158 5f5f2900 5f5f6861  AST8_MAX__).__ha
 00d0 76655f6c 6f6e6733 32203100 5f5f464c  ve_long32 1.__FL
 00e0 54333258 5f4d4158 5f455850 5f5f2031  T32X_MAX_EXP__ 1
 00f0 30323400 5f5f494e 545f4641 53543136  024.__INT_FAST16
 0100 5f574944 54485f5f 20333200 5f5f4743  _WIDTH__ 32.__GC
 0110 435f4154 4f4d4943 5f544553 545f414e  C_ATOMIC_TEST_AN
 0120 445f5345 545f5452 55455641 4c203100  D_SET_TRUEVAL 1.
 0130 494e544d 41585f4d 494e2028 2d494e54  INTMAX_MIN (-INT
 0140 4d41585f 4d415820 2d203129 005f5f55  MAX_MAX - 1).__U
 0150 4c414343 554d5f45 5053494c 4f4e5f5f  LACCUM_EPSILON__
 0160 20307831 502d3332 554c4b00 5f5f4152   0x1P-32ULK.__AR
 0170 4d5f4645 41545552 455f5349 4d443332  M_FEATURE_SIMD32
 0180 005f5f46 4c543332 5f4d414e 545f4449  .__FLT32_MANT_DI
 0190 475f5f20 32340063 68617200 494e545f  G__ 24.char.INT_
 01a0 4c454153 5436345f 4d494e20 282d5f5f  LEAST64_MIN (-__
 01b0 494e545f 4c454153 5436345f 4d41585f  INT_LEAST64_MAX_
 01c0 5f202d20 3129005f 5f55494e 54385f43  _ - 1).__UINT8_C
 01d0 28632920 63005f5f 41524d5f 4e454f4e  (c) c.__ARM_NEON
 01e0 5f5f005f 5f53495a 454f465f 57494e54  __.__SIZEOF_WINT
 01f0 5f545f5f 2034005f 5f51515f 49424954  _T__ 4.__QQ_IBIT
 0200 5f5f2030 005f5f55 44515f49 4249545f  __ 0.__UDQ_IBIT_
 0210 5f203000 5f5f4152 4d5f4645 41545552  _ 0.__ARM_FEATUR
 0220 455f4d41 544d554c 5f494e54 38005549  E_MATMUL_INT8.UI
 0230 4e543634 5f432878 29205f5f 55494e54  NT64_C(x) __UINT
 0240 36345f43 28782900 5f5f4743 435f4154  64_C(x).__GCC_AT
 0250 4f4d4943 5f53484f 52545f4c 4f434b5f  OMIC_SHORT_LOCK_
 0260 46524545 2031005f 5f464c54 3332585f  FREE 1.__FLT32X_
 0270 44454349 4d414c5f 4449475f 5f203137  DECIMAL_DIG__ 17
 0280 005f5f58 53495f56 49534942 4c452030  .__XSI_VISIBLE 0
 0290 005f5f44 424c5f4d 494e5f45 58505f5f  .__DBL_MIN_EXP__
 02a0 20282d31 30323129 005f5f4c 4f4e475f   (-1021).__LONG_
 02b0 4c4f4e47 5f574944 54485f5f 20363400  LONG_WIDTH__ 64.
 02c0 5f5f4743 435f4154 4f4d4943 5f434841  __GCC_ATOMIC_CHA
 02d0 5231365f 545f4c4f 434b5f46 52454520  R16_T_LOCK_FREE 
 02e0 31005f5f 41524d5f 46454154 5552455f  1.__ARM_FEATURE_
 02f0 4344455f 434f5052 4f43005f 5f41524d  CDE_COPROC.__ARM
 0300 5f53495a 454f465f 57434841 525f5420  _SIZEOF_WCHAR_T 
 0310 34005f5f 41524d5f 46503136 5f464f52  4.__ARM_FP16_FOR
 0320 4d41545f 49454545 005f5f50 4f534958  MAT_IEEE.__POSIX
 0330 5f564953 49424c45 20323030 38303900  _VISIBLE 200809.
 0340 5f5f4152 4d5f4645 41545552 455f434f  __ARM_FEATURE_CO
 0350 4d504c45 58005f5f 4c4c4652 4143545f  MPLEX.__LLFRACT_
 0360 49424954 5f5f2030 005f5f46 4c543332  IBIT__ 0.__FLT32
 0370 585f4841 535f5155 4945545f 4e414e5f  X_HAS_QUIET_NAN_
 0380 5f203100 5f5f474e 55435f50 52455245  _ 1.__GNUC_PRERE
 0390 51286d61 6a2c6d69 6e292028 285f5f47  Q(maj,min) ((__G
 03a0 4e55435f 5f203c3c 20313629 202b205f  NUC__ << 16) + _
 03b0 5f474e55 435f4d49 4e4f525f 5f203e3d  _GNUC_MINOR__ >=
 03c0 2028286d 616a2920 3c3c2031 3629202b   ((maj) << 16) +
 03d0 20286d69 6e292900 5f5f4442 4c5f4d41   (min)).__DBL_MA
 03e0 585f5f20 2828646f 75626c65 29312e37  X__ ((double)1.7
 03f0 39373639 33313334 38363233 31353765  976931348623157e
 0400 2b333038 4c29005f 504f5349 585f435f  +308L)._POSIX_C_
 0410 534f5552 4345005f 5f555346 52414354  SOURCE.__USFRACT
 0420 5f4d494e 5f5f2030 2e305548 52005549  _MIN__ 0.0UHR.UI
 0430 4e545f4c 45415354 31365f4d 41582028  NT_LEAST16_MAX (
 0440 5f5f5549 4e545f4c 45415354 31365f4d  __UINT_LEAST16_M
 0450 41585f5f 29005f5f 464c5433 32585f4d  AX__).__FLT32X_M
 0460 494e5f45 58505f5f 20282d31 30323129  IN_EXP__ (-1021)
 0470 005f5f47 4e55435f 4d494e4f 525f5f20  .__GNUC_MINOR__ 
 0480 3300756e 7369676e 65642069 6e740049  3.unsigned int.I
 0490 4e545f4c 45415354 385f4d49 4e20282d  NT_LEAST8_MIN (-
 04a0 5f5f494e 545f4c45 41535438 5f4d4158  __INT_LEAST8_MAX
 04b0 5f5f202d 20312900 5f5f4152 4d5f4645  __ - 1).__ARM_FE
 04c0 41545552 455f4352 5950544f 005f5f44  ATURE_CRYPTO.__D
 04d0 424c5f4e 4f524d5f 4d41585f 5f202828  BL_NORM_MAX__ ((
 04e0 646f7562 6c652931 2e373937 36393331  double)1.7976931
 04f0 33343836 32333135 37652b33 30384c29  348623157e+308L)
 0500 005f5f46 4c543332 5f49535f 4945435f  .__FLT32_IS_IEC_
 0510 36303535 395f5f20 31005f5f 55494e54  60559__ 1.__UINT
 0520 31365f43 28632920 63005f50 4f534958  16_C(c) c._POSIX
 0530 5f534f55 52434500 5f5f5349 5a454f46  _SOURCE.__SIZEOF
 0540 5f53495a 455f545f 5f203400 5f5f4348  _SIZE_T__ 4.__CH
 0550 41523136 5f545950 455f5f20 73686f72  AR16_TYPE__ shor
 0560 7420756e 7369676e 65642069 6e74005f  t unsigned int._
 0570 5f53495a 454f465f 4c4f4e47 5f444f55  _SIZEOF_LONG_DOU
 0580 424c455f 5f203800 5f5f4c44 424c5f49  BLE__ 8.__LDBL_I
 0590 535f4945 435f3630 3535395f 5f203100  S_IEC_60559__ 1.
 05a0 5f5f494e 545f4641 5354385f 4d41585f  __INT_FAST8_MAX_
 05b0 5f203078 37666666 66666666 005f5f4f  _ 0x7fffffff.__O
 05c0 52444552 5f424947 5f454e44 49414e5f  RDER_BIG_ENDIAN_
 05d0 5f203433 3231005f 5f554c4c 46524143  _ 4321.__ULLFRAC
 05e0 545f4d41 585f5f20 30584646 46464646  T_MAX__ 0XFFFFFF
 05f0 46464646 46464646 4646502d 3634554c  FFFFFFFFFFP-64UL
 0600 4c52005f 5f474343 5f434f4e 53545255  LR.__GCC_CONSTRU
 0610 43544956 455f5349 5a452036 34007368  CTIVE_SIZE 64.sh
 0620 6f727420 2b31005f 5f44424c 5f4d414e  ort +1.__DBL_MAN
 0630 545f4449 475f5f20 3533005f 5f55494e  T_DIG__ 53.__UIN
 0640 545f4c45 41535436 345f5459 50455f5f  T_LEAST64_TYPE__
 0650 206c6f6e 67206c6f 6e672075 6e736967   long long unsig
 0660 6e656420 696e7400 5f5f494e 545f4d41  ned int.__INT_MA
 0670 585f5f20 30783766 66666666 6666005f  X__ 0x7fffffff._
 0680 5f41544f 4d49435f 52454c45 41534520  _ATOMIC_RELEASE 
 0690 33005f5f 50545244 4946465f 54595045  3.__PTRDIFF_TYPE
 06a0 5f5f2069 6e74005f 5f434841 525f554e  __ int.__CHAR_UN
 06b0 5349474e 45445f5f 20310055 494e545f  SIGNED__ 1.UINT_
 06c0 4c454153 5433325f 4d415820 285f5f55  LEAST32_MAX (__U
 06d0 494e545f 4c454153 5433325f 4d41585f  INT_LEAST32_MAX_
 06e0 5f29005f 5f494e54 31365f54 5950455f  _).__INT16_TYPE_
 06f0 5f207368 6f727420 696e7400 5f5f4743  _ short int.__GC
 0700 435f4154 4f4d4943 5f434841 525f4c4f  C_ATOMIC_CHAR_LO
 0710 434b5f46 52454520 31005f5f 41524d5f  CK_FREE 1.__ARM_
 0720 46454154 5552455f 5152444d 58005f5f  FEATURE_QRDMX.__
 0730 696e7438 5f745f64 6566696e 65642031  int8_t_defined 1
 0740 005f5f4c 44424c5f 4449475f 5f203135  .__LDBL_DIG__ 15
 0750 005f5f46 4c543332 5f4d4158 5f5f2033  .__FLT32_MAX__ 3
 0760 2e343032 38323334 36363338 35323838  .402823466385288
 0770 36652b33 38463332 005f5f4c 4c414343  6e+38F32.__LLACC
 0780 554d5f49 4249545f 5f203332 0055494e  UM_IBIT__ 32.UIN
 0790 54385f43 28782920 5f5f5549 4e54385f  T8_C(x) __UINT8_
 07a0 43287829 005f5f41 544f4d49 435f5345  C(x).__ATOMIC_SE
 07b0 515f4353 54203500 55494e54 5f4c4541  Q_CST 5.UINT_LEA
 07c0 53543634 5f4d4158 20285f5f 55494e54  ST64_MAX (__UINT
 07d0 5f4c4541 53543634 5f4d4158 5f5f2900  _LEAST64_MAX__).
 07e0 5f5f5349 5a454f46 5f53484f 52545f5f  __SIZEOF_SHORT__
 07f0 2032005f 4e45574c 49425f56 45525349   2._NEWLIB_VERSI
 0800 4f4e5f48 5f5f2031 005f5f49 4e545f4c  ON_H__ 1.__INT_L
 0810 45415354 385f4d41 585f5f20 30783766  EAST8_MAX__ 0x7f
 0820 005f5f49 4e545f4c 45415354 385f5459  .__INT_LEAST8_TY
 0830 50455f5f 20736967 6e656420 63686172  PE__ signed char
 0840 005f5f46 4c543634 5f4d414e 545f4449  .__FLT64_MANT_DI
 0850 475f5f20 3533005f 5f55494e 544d4158  G__ 53.__UINTMAX
 0860 5f432863 29206320 23232055 4c4c0049  _C(c) c ## ULL.I
 0870 4e543332 5f432878 29205f5f 494e5433  NT32_C(x) __INT3
 0880 325f4328 78290069 6e74202b 32005f5f  2_C(x).int +2.__
 0890 4e45574c 49425f5f 2034005f 5f425954  NEWLIB__ 4.__BYT
 08a0 455f4f52 4445525f 5f205f5f 4f524445  E_ORDER__ __ORDE
 08b0 525f4c49 54544c45 5f454e44 49414e5f  R_LITTLE_ENDIAN_
 08c0 5f005f5f 464c5433 325f4d49 4e5f3130  _.__FLT32_MIN_10
 08d0 5f455850 5f5f2028 2d333729 005f5f69  _EXP__ (-37).__i
 08e0 6e743230 005f5f4c 46524143 545f4942  nt20.__LFRACT_IB
 08f0 49545f5f 2030005f 5f41524d 5f415243  IT__ 0.__ARM_ARC
 0900 48203400 5f5f4253 445f5649 5349424c  H 4.__BSD_VISIBL
 0910 45203100 63686172 202b3000 5f55494e  E 1.char +0._UIN
 0920 5431365f 545f4445 434c4152 45442000  T16_T_DECLARED .
 0930 5f5f5354 44435f55 54465f33 325f5f20  __STDC_UTF_32__ 
 0940 31002f68 6f6d652f 6164692f 64617461  1./home/adi/data
 0950 2f73746d 33326631 005f5f49 4e545f4c  /stm32f1.__INT_L
 0960 45415354 31365f4d 41585f5f 20307837  EAST16_MAX__ 0x7
 0970 66666600 494e5450 54525f4d 41582028  fff.INTPTR_MAX (
 0980 5f5f494e 54505452 5f4d4158 5f5f2900  __INTPTR_MAX__).
 0990 5f5f5343 4841525f 4d41585f 5f203078  __SCHAR_MAX__ 0x
 09a0 3766005f 5f464c54 36345f4e 4f524d5f  7f.__FLT64_NORM_
 09b0 4d41585f 5f20312e 37393736 39333133  MAX__ 1.79769313
 09c0 34383632 33313537 652b3330 38463634  48623157e+308F64
 09d0 005f5f41 524d5f46 45415455 52455f4e  .__ARM_FEATURE_N
 09e0 554d4552 49435f4d 41584d49 4e005f5f  UMERIC_MAXMIN.__
 09f0 554c4c46 52414354 5f494249 545f5f20  ULLFRACT_IBIT__ 
 0a00 30005f5f 464c5436 345f4449 475f5f20  0.__FLT64_DIG__ 
 0a10 3135005f 5f464153 54333220 005f5f41  15.__FAST32 .__A
 0a20 544f4d49 435f5245 4c415845 44203000  TOMIC_RELAXED 0.
 0a30 5f5f4152 4d5f4645 41545552 455f4650  __ARM_FEATURE_FP
 0a40 31365f46 4d4c005f 5f53495a 455f4d41  16_FML.__SIZE_MA
 0a50 585f5f20 30786666 66666666 66665500  X__ 0xffffffffU.
 0a60 5f55494e 5433325f 545f4445 434c4152  _UINT32_T_DECLAR
 0a70 45442000 5f5f4c41 4343554d 5f4d494e  ED .__LACCUM_MIN
 0a80 5f5f2028 2d305831 5033314c 4b2d3058  __ (-0X1P31LK-0X
 0a90 31503331 4c4b2900 5f5f554c 4c414343  1P31LK).__ULLACC
 0aa0 554d5f4d 41585f5f 20305846 46464646  UM_MAX__ 0XFFFFF
 0ab0 46464646 46464646 46464650 2d333255  FFFFFFFFFFFP-32U
 0ac0 4c4c4b00 5f5f554c 41434355 4d5f4d49  LLK.__ULACCUM_MI
 0ad0 4e5f5f20 302e3055 4c4b005f 5f464c54  N__ 0.0ULK.__FLT
 0ae0 3332585f 4841535f 494e4649 4e495459  32X_HAS_INFINITY
 0af0 5f5f2031 005f5f46 4c545f48 41535f49  __ 1.__FLT_HAS_I
 0b00 4e46494e 4954595f 5f203100 5f415446  NFINITY__ 1._ATF
 0b10 494c455f 534f5552 4345005f 5f4e4557  ILE_SOURCE.__NEW
 0b20 4c49425f 4d494e4f 525f5f20 34005f5f  LIB_MINOR__ 4.__
 0b30 464c5433 325f4550 53494c4f 4e5f5f20  FLT32_EPSILON__ 
 0b40 312e3139 32303932 38393535 30373831  1.19209289550781
 0b50 3235652d 37463332 005f5f55 44415f49  25e-7F32.__UDA_I
 0b60 4249545f 5f203332 005f5f41 524d5f46  BIT__ 32.__ARM_F
 0b70 45415455 52455f42 5449005f 5f494e54  EATURE_BTI.__INT
 0b80 5f464153 5436345f 54595045 5f5f206c  _FAST64_TYPE__ l
 0b90 6f6e6720 6c6f6e67 20696e74 005f5f49  ong long int.__I
 0ba0 4e54385f 43286329 20630073 69676e65  NT8_C(c) c.signe
 0bb0 64206368 6172005f 5f41524d 5f333242  d char.__ARM_32B
 0bc0 49545f53 54415445 2031005f 5f464450  IT_STATE 1.__FDP
 0bd0 49435f5f 005f5f49 4e545f4c 45415354  IC__.__INT_LEAST
 0be0 31365f57 49445448 5f5f2031 36005f5f  16_WIDTH__ 16.__
 0bf0 4c454153 54363420 226c6c22 005f5f41  LEAST64 "ll".__A
 0c00 524d5f46 5031365f 464f524d 41545f41  RM_FP16_FORMAT_A
 0c10 4c544552 4e415449 5645005f 5f554c4c  LTERNATIVE.__ULL
 0c20 41434355 4d5f4d49 4e5f5f20 302e3055  ACCUM_MIN__ 0.0U
 0c30 4c4c4b00 75696e74 33325f74 005f4743  LLK.uint32_t._GC
 0c40 435f5752 41505f53 5444494e 545f4820  C_WRAP_STDINT_H 
 0c50 005f5f41 524d5f46 45415455 52455f44  .__ARM_FEATURE_D
 0c60 4f545052 4f44005f 5f41524d 5f4e454f  OTPROD.__ARM_NEO
 0c70 4e005f5f 41524d5f 46454154 5552455f  N.__ARM_FEATURE_
 0c80 434d5345 005f5f55 494e5450 54525f54  CMSE.__UINTPTR_T
 0c90 5950455f 5f20756e 7369676e 65642069  YPE__ unsigned i
 0ca0 6e74005f 5f464c54 33325f48 41535f44  nt.__FLT32_HAS_D
 0cb0 454e4f52 4d5f5f20 31005f5f 464c5436  ENORM__ 1.__FLT6
 0cc0 345f4445 4e4f524d 5f4d494e 5f5f2034  4_DENORM_MIN__ 4
 0cd0 2e393430 36353634 35383431 32343635  .940656458412465
 0ce0 34652d33 32344636 34005f5f 53415f49  4e-324F64.__SA_I
 0cf0 4249545f 5f203136 005f5f4c 4c465241  BIT__ 16.__LLFRA
 0d00 43545f4d 41585f5f 20305837 46464646  CT_MAX__ 0X7FFFF
 0d10 46464646 46464646 46464650 2d36334c  FFFFFFFFFFFP-63L
 0d20 4c520053 49475f41 544f4d49 435f4d41  LR.SIG_ATOMIC_MA
 0d30 5820285f 5f535444 494e545f 45585028  X (__STDINT_EXP(
 0d40 494e545f 4d415829 29005f5f 494e545f  INT_MAX)).__INT_
 0d50 46415354 36345f4d 41585f5f 20307837  FAST64_MAX__ 0x7
 0d60 66666666 66666666 66666666 6666664c  fffffffffffffffL
 0d70 4c005f5f 5353505f 464f5254 4946595f  L.__SSP_FORTIFY_
 0d80 4c455645 4c203000 5f5f4152 4d5f4645  LEVEL 0.__ARM_FE
 0d90 41545552 455f4650 31365f53 43414c41  ATURE_FP16_SCALA
 0da0 525f4152 4954484d 45544943 005f5f46  R_ARITHMETIC.__F
 0db0 4c545f44 49475f5f 2036005f 5f44424c  LT_DIG__ 6.__DBL
 0dc0 5f455053 494c4f4e 5f5f2028 28646f75  _EPSILON__ ((dou
 0dd0 626c6529 322e3232 30343436 30343932  ble)2.2204460492
 0de0 35303331 3331652d 31364c29 005f494e  503131e-16L)._IN
 0df0 544d4158 5f545f44 45434c41 52454420  TMAX_T_DECLARED 
 0e00 005f5f4d 4953435f 56495349 424c4520  .__MISC_VISIBLE 
 0e10 31006c6f 6e67005f 5f44415f 46424954  1.long.__DA_FBIT
 0e20 5f5f2033 31005f5f 41524d5f 53495a45  __ 31.__ARM_SIZE
 0e30 4f465f4d 494e494d 414c5f45 4e554d20  OF_MINIMAL_ENUM 
 0e40 31005f5f 55534553 5f494e49 5446494e  1.__USES_INITFIN
 0e50 495f5f20 3100636f 756e7400 5f5f4743  I__ 1.count.__GC
 0e60 435f4945 435f3535 39203000 7369676e  C_IEC_559 0.sign
 0e70 6564202b 30005f5f 55534143 43554d5f  ed +0.__USACCUM_
 0e80 45505349 4c4f4e5f 5f203078 31502d38  EPSILON__ 0x1P-8
 0e90 55484b00 5f5f5f69 6e74385f 745f6465  UHK.___int8_t_de
 0ea0 66696e65 64203100 5f5f5054 52444946  fined 1.__PTRDIF
 0eb0 465f4d41 585f5f20 30783766 66666666  F_MAX__ 0x7fffff
 0ec0 6666005f 5f464c54 33325f48 41535f51  ff.__FLT32_HAS_Q
 0ed0 55494554 5f4e414e 5f5f2031 0055494e  UIET_NAN__ 1.UIN
 0ee0 5433325f 4d415820 285f5f55 494e5433  T32_MAX (__UINT3
 0ef0 325f4d41 585f5f29 005f5f55 4c414343  2_MAX__).__ULACC
 0f00 554d5f4d 41585f5f 20305846 46464646  UM_MAX__ 0XFFFFF
 0f10 46464646 46464646 46464650 2d333255  FFFFFFFFFFFP-32U
 0f20 4c4b005f 5f554652 4143545f 4d41585f  LK.__UFRACT_MAX_
 0f30 5f203058 46464646 502d3136 5552005f  _ 0XFFFFP-16UR._
 0f40 5f534652 4143545f 4d41585f 5f203058  _SFRACT_MAX__ 0X
 0f50 3746502d 37485200 5f5f474e 55435f5f  7FP-7HR.__GNUC__
 0f60 20313300 5f5f4152 4d5f4645 41545552   13.__ARM_FEATUR
 0f70 455f5348 4132005f 5359535f 46454154  E_SHA2._SYS_FEAT
 0f80 55524553 5f482000 6c6f6e67 206c6f6e  URES_H .long lon
 0f90 6720756e 7369676e 65642069 6e74005f  g unsigned int._
 0fa0 5f494e54 36345f4d 41585f5f 20307837  _INT64_MAX__ 0x7
 0fb0 66666666 66666666 66666666 6666664c  fffffffffffffffL
 0fc0 4c005f5f 494e5438 5f4d4158 5f5f2030  L.__INT8_MAX__ 0
 0fd0 78376600 5f5f554c 46524143 545f4550  x7f.__ULFRACT_EP
 0fe0 53494c4f 4e5f5f20 30783150 2d333255  SILON__ 0x1P-32U
 0ff0 4c52005f 5f494e54 5f4c4541 53543332  LR.__INT_LEAST32
 1000 5f545950 455f5f20 6c6f6e67 20696e74  _TYPE__ long int
 1010 005f5f55 4c465241 43545f49 4249545f  .__ULFRACT_IBIT_
 1020 5f203000 5f5f4c4c 41434355 4d5f4642  _ 0.__LLACCUM_FB
 1030 49545f5f 20333100 5f5f5549 4e545f4c  IT__ 31.__UINT_L
 1040 45415354 36345f4d 41585f5f 20307866  EAST64_MAX__ 0xf
 1050 66666666 66666666 66666666 66666655  fffffffffffffffU
 1060 4c4c005f 5f464c54 5f524144 49585f5f  LL.__FLT_RADIX__
 1070 2032005f 5f554c4c 46524143 545f4d49   2.__ULLFRACT_MI
 1080 4e5f5f20 302e3055 4c4c5200 5f5f4442  N__ 0.0ULLR.__DB
 1090 4c5f4841 535f5155 4945545f 4e414e5f  L_HAS_QUIET_NAN_
 10a0 5f203100 5f5f5541 4343554d 5f4d494e  _ 1.__UACCUM_MIN
 10b0 5f5f2030 2e30554b 005f5f41 524d5f46  __ 0.0UK.__ARM_F
 10c0 45415455 52455f51 42495400 5f5f4c46  EATURE_QBIT.__LF
 10d0 52414354 5f455053 494c4f4e 5f5f2030  RACT_EPSILON__ 0
 10e0 7831502d 33314c52 005f5f49 4e545f46  x1P-31LR.__INT_F
 10f0 41535438 5f545950 455f5f20 696e7400  AST8_TYPE__ int.
 1100 494e545f 4c454153 5431365f 4d415820  INT_LEAST16_MAX 
 1110 285f5f49 4e545f4c 45415354 31365f4d  (__INT_LEAST16_M
 1120 41585f5f 29005f5f 464c5436 345f4841  AX__).__FLT64_HA
 1130 535f494e 46494e49 54595f5f 2031005f  S_INFINITY__ 1._
 1140 5f464c54 3332585f 44454e4f 524d5f4d  _FLT32X_DENORM_M
 1150 494e5f5f 20342e39 34303635 36343538  IN__ 4.940656458
 1160 34313234 36353465 2d333234 46333278  4124654e-324F32x
 1170 005f5f53 41434355 4d5f4642 49545f5f  .__SACCUM_FBIT__
 1180 2037005f 5f574348 41525f54 5950455f   7.__WCHAR_TYPE_
 1190 5f20756e 7369676e 65642069 6e74005f  _ unsigned int._
 11a0 5f41524d 5f41534d 5f53594e 5441585f  _ARM_ASM_SYNTAX_
 11b0 554e4946 4945445f 5f005f5f 44424c5f  UNIFIED__.__DBL_
 11c0 4d494e5f 5f202828 646f7562 6c652932  MIN__ ((double)2
 11d0 2e323235 30373338 35383530 37323031  .225073858507201
 11e0 34652d33 30384c29 005f5f46 4c543634  4e-308L).__FLT64
 11f0 5f4d494e 5f5f2032 2e323235 30373338  _MIN__ 2.2250738
 1200 35383530 37323031 34652d33 30384636  585072014e-308F6
 1210 34005f5f 46524143 545f4d49 4e5f5f20  4.__FRACT_MIN__ 
 1220 282d302e 35522d30 2e355229 005f5f47  (-0.5R-0.5R).__G
 1230 43435f41 544f4d49 435f494e 545f4c4f  CC_ATOMIC_INT_LO
 1240 434b5f46 52454520 31005f5f 494e544d  CK_FREE 1.__INTM
 1250 41585f4d 41585f5f 20307837 66666666  AX_MAX__ 0x7ffff
 1260 66666666 66666666 6666664c 4c005f55  fffffffffffLL._U
 1270 494e5436 345f545f 4445434c 41524544  INT64_T_DECLARED
 1280 20005f5f 55414343 554d5f45 5053494c   .__UACCUM_EPSIL
 1290 4f4e5f5f 20307831 502d3136 554b0066  ON__ 0x1P-16UK.f
 12a0 5f707472 3200665f 70747233 005f5f41  _ptr2.f_ptr3.__A
 12b0 4343554d 5f494249 545f5f20 3136005f  CCUM_IBIT__ 16._
 12c0 5f4c4442 4c5f4445 4e4f524d 5f4d494e  _LDBL_DENORM_MIN
 12d0 5f5f2034 2e393430 36353634 35383431  __ 4.94065645841
 12e0 32343635 34652d33 32344c00 5f5f464c  24654e-324L.__FL
 12f0 5436345f 4d41585f 31305f45 58505f5f  T64_MAX_10_EXP__
 1300 20333038 005f5f53 41434355 4d5f4942   308.__SACCUM_IB
 1310 49545f5f 2038005f 5f53495a 454f465f  IT__ 8.__SIZEOF_
 1320 50545244 4946465f 545f5f20 34005f5f  PTRDIFF_T__ 4.__
 1330 53465241 43545f4d 494e5f5f 20282d30  SFRACT_MIN__ (-0
 1340 2e354852 2d302e35 48522900 5f5f5553  .5HR-0.5HR).__US
 1350 415f4942 49545f5f 20313600 55494e54  A_IBIT__ 16.UINT
 1360 31365f4d 41582028 5f5f5549 4e543136  16_MAX (__UINT16
 1370 5f4d4158 5f5f2900 5f5f5f69 6e743634  _MAX__).___int64
 1380 5f745f64 6566696e 65642031 00736967  _t_defined 1.sig
 1390 6e656400 494e5431 365f4328 7829205f  ned.INT16_C(x) _
 13a0 5f494e54 31365f43 28782900 5f535444  _INT16_C(x)._STD
 13b0 494e545f 4820005f 504f5349 585f435f  INT_H ._POSIX_C_
 13c0 534f5552 43452032 30303830 394c005f  SOURCE 200809L._
 13d0 5f53495a 454f465f 464c4f41 545f5f20  _SIZEOF_FLOAT__ 
 13e0 34005f5f 55534143 43554d5f 4d41585f  4.__USACCUM_MAX_
 13f0 5f203058 46464646 502d3855 484b005f  _ 0XFFFFP-8UHK._
 1400 5f55494e 5433325f 43286329 20632023  _UINT32_C(c) c #
 1410 2320554c 005f5f55 44415f46 4249545f  # UL.__UDA_FBIT_
 1420 5f203332 00494e54 5f464153 5433325f  _ 32.INT_FAST32_
 1430 4d494e20 282d5f5f 494e545f 46415354  MIN (-__INT_FAST
 1440 33325f4d 41585f5f 202d2031 29005f5f  32_MAX__ - 1).__
 1450 41524d5f 46454154 5552455f 554e414c  ARM_FEATURE_UNAL
 1460 49474e45 44005f5f 696e7436 345f745f  IGNED.__int64_t_
 1470 64656669 6e656420 3100494e 545f4c45  defined 1.INT_LE
 1480 41535433 325f4d41 5820285f 5f494e54  AST32_MAX (__INT
 1490 5f4c4541 53543332 5f4d4158 5f5f2900  _LEAST32_MAX__).
 14a0 5f5f4441 5f494249 545f5f20 3332005f  __DA_IBIT__ 32._
 14b0 5f424947 47455354 5f414c49 474e4d45  _BIGGEST_ALIGNME
 14c0 4e545f5f 2038005f 5f4c4143 43554d5f  NT__ 8.__LACCUM_
 14d0 49424954 5f5f2033 32005f53 59535f5f  IBIT__ 32._SYS__
 14e0 53544449 4e545f48 20005f5f 55534652  STDINT_H .__USFR
 14f0 4143545f 4d41585f 5f203058 4646502d  ACT_MAX__ 0XFFP-
 1500 38554852 005f5f55 494e545f 46415354  8UHR.__UINT_FAST
 1510 385f4d41 585f5f20 30786666 66666666  8_MAX__ 0xffffff
 1520 66665500 5f5f4f52 4445525f 4c495454  ffU.__ORDER_LITT
 1530 4c455f45 4e444941 4e5f5f20 31323334  LE_ENDIAN__ 1234
 1540 005f5f48 4156455f 53504543 554c4154  .__HAVE_SPECULAT
 1550 494f4e5f 53414645 5f56414c 55452031  ION_SAFE_VALUE 1
 1560 005f5f4c 4c414343 554d5f4d 494e5f5f  .__LLACCUM_MIN__
 1570 20282d30 58315033 314c4c4b 2d305831   (-0X1P31LLK-0X1
 1580 5033314c 4c4b2900 5f5f4c45 41535431  P31LLK).__LEAST1
 1590 36202268 22005f5f 53415f46 4249545f  6 "h".__SA_FBIT_
 15a0 5f203135 005f5f46 4c543634 5f4d494e  _ 15.__FLT64_MIN
 15b0 5f31305f 4558505f 5f20282d 33303729  _10_EXP__ (-307)
 15c0 00756e73 69676e65 64005f5f 41524d5f  .unsigned.__ARM_
 15d0 46454154 5552455f 4254495f 44454641  FEATURE_BTI_DEFA
 15e0 554c5400 5f444546 41554c54 5f534f55  ULT._DEFAULT_SOU
 15f0 52434520 31005f5f 53414343 554d5f45  RCE 1.__SACCUM_E
 1600 5053494c 4f4e5f5f 20307831 502d3748  PSILON__ 0x1P-7H
 1610 4b005f5f 41524d5f 46454154 5552455f  K.__ARM_FEATURE_
 1620 5041435f 44454641 554c5400 5f5f494e  PAC_DEFAULT.__IN
 1630 545f4641 53543136 5f545950 455f5f20  T_FAST16_TYPE__ 
 1640 696e7400 5f5f474e 555f5649 5349424c  int.__GNU_VISIBL
 1650 45203000 5f5f464c 5433325f 44454349  E 0.__FLT32_DECI
 1660 4d414c5f 4449475f 5f203900 5f5f5549  MAL_DIG__ 9.__UI
 1670 4e543136 5f545950 455f5f20 73686f72  NT16_TYPE__ shor
 1680 7420756e 7369676e 65642069 6e74005f  t unsigned int._
 1690 5f574348 41525f57 49445448 5f5f2033  _WCHAR_WIDTH__ 3
 16a0 32005f5f 474e5543 5f535444 435f494e  2.__GNUC_STDC_IN
 16b0 4c494e45 5f5f2031 005f5f55 48515f49  LINE__ 1.__UHQ_I
 16c0 4249545f 5f203000 5f5f5546 52414354  BIT__ 0.__UFRACT
 16d0 5f464249 545f5f20 31360049 4e545f4c  _FBIT__ 16.INT_L
 16e0 45415354 31365f4d 494e2028 2d5f5f49  EAST16_MIN (-__I
 16f0 4e545f4c 45415354 31365f4d 41585f5f  NT_LEAST16_MAX__
 1700 202d2031 29005f5f 4c4f4e47 5f4c4f4e   - 1).__LONG_LON
 1710 475f4d41 585f5f20 30783766 66666666  G_MAX__ 0x7fffff
 1720 66666666 66666666 66664c4c 005f5f46  ffffffffffLL.__F
 1730 41535436 3420226c 6c22005f 5f494e54  AST64 "ll".__INT
 1740 36345f54 5950455f 5f206c6f 6e67206c  64_TYPE__ long l
 1750 6f6e6720 696e7400 5f5f464c 545f4d41  ong int.__FLT_MA
 1760 585f3130 5f455850 5f5f2033 38005f5f  X_10_EXP__ 38.__
 1770 46415354 31362000 5f5f4c4c 41434355  FAST16 .__LLACCU
 1780 4d5f4d41 585f5f20 30583746 46464646  M_MAX__ 0X7FFFFF
 1790 46464646 46464646 4646502d 33314c4c  FFFFFFFFFFP-31LL
 17a0 4b005f5f 4c4c4143 43554d5f 45505349  K.__LLACCUM_EPSI
 17b0 4c4f4e5f 5f203078 31502d33 314c4c4b  LON__ 0x1P-31LLK
 17c0 005f5f46 4c543332 585f4d41 4e545f44  .__FLT32X_MANT_D
 17d0 49475f5f 20353300 5f5f4e4f 5f494e4c  IG__ 53.__NO_INL
 17e0 494e455f 5f203100 5f5f4152 4d5f4645  INE__ 1.__ARM_FE
 17f0 41545552 455f434f 50524f43 005f5f55  ATURE_COPROC.__U
 1800 4c465241 43545f4d 494e5f5f 20302e30  LFRACT_MIN__ 0.0
 1810 554c5200 5f5f464c 545f4d41 4e545f44  ULR.__FLT_MANT_D
 1820 49475f5f 20323400 5f5f4152 4d5f4152  IG__ 24.__ARM_AR
 1830 4348005f 5f464c54 36345f44 4543494d  CH.__FLT64_DECIM
 1840 414c5f44 49475f5f 20313700 5f5f5245  AL_DIG__ 17.__RE
 1850 47495354 45525f50 52454649 585f5f20  GISTER_PREFIX__ 
 1860 005f5f46 4c543332 5f4d494e 5f455850  .__FLT32_MIN_EXP
 1870 5f5f2028 2d313235 29005f5f 55414343  __ (-125).__UACC
 1880 554d5f49 4249545f 5f203136 005f5f55  UM_IBIT__ 16.__U
 1890 494e545f 46415354 31365f4d 41585f5f  INT_FAST16_MAX__
 18a0 20307866 66666666 66666655 005f5f55   0xffffffffU.__U
 18b0 494e545f 46415354 31365f54 5950455f  INT_FAST16_TYPE_
 18c0 5f20756e 7369676e 65642069 6e74005f  _ unsigned int._
 18d0 5f464c54 33325f4d 41585f45 58505f5f  _FLT32_MAX_EXP__
 18e0 20313238 005f5f44 424c5f4d 494e5f31   128.__DBL_MIN_1
 18f0 305f4558 505f5f20 282d3330 3729005f  0_EXP__ (-307)._
 1900 5f555341 4343554d 5f494249 545f5f20  _USACCUM_IBIT__ 
 1910 38005f5f 4e45574c 49425f50 41544348  8.__NEWLIB_PATCH
 1920 4c455645 4c5f5f20 30005f5f 5448554d  LEVEL__ 0.__THUM
 1930 425f494e 54455257 4f524b5f 5f203100  B_INTERWORK__ 1.
 1940 5f5f464c 5433325f 4449475f 5f203600  __FLT32_DIG__ 6.
 1950 5f5f4758 585f4142 495f5645 5253494f  __GXX_ABI_VERSIO
 1960 4e203130 3138005f 5f464c54 36345f48  N 1018.__FLT64_H
 1970 41535f44 454e4f52 4d5f5f20 31005f5f  AS_DENORM__ 1.__
 1980 5f696e74 5f6c6561 73743634 5f745f64  _int_least64_t_d
 1990 6566696e 65642031 005f5f46 4c545f45  efined 1.__FLT_E
 19a0 56414c5f 4d455448 4f445f5f 2030005f  VAL_METHOD__ 0._
 19b0 5f464c54 3332585f 4841535f 44454e4f  _FLT32X_HAS_DENO
 19c0 524d5f5f 2031005f 494e5450 54525f45  RM__ 1._INTPTR_E
 19d0 515f494e 5420005f 5f494e54 5f4c4541  Q_INT .__INT_LEA
 19e0 53543634 5f4d4158 5f5f2030 78376666  ST64_MAX__ 0x7ff
 19f0 66666666 66666666 66666666 664c4c00  fffffffffffffLL.
 1a00 494e5433 325f4d49 4e20282d 5f5f494e  INT32_MIN (-__IN
 1a10 5433325f 4d41585f 5f202d20 3129005f  T32_MAX__ - 1)._
 1a20 5f414343 554d5f46 4249545f 5f203135  _ACCUM_FBIT__ 15
 1a30 005f5f47 43435f41 544f4d49 435f5743  .__GCC_ATOMIC_WC
 1a40 4841525f 545f4c4f 434b5f46 52454520  HAR_T_LOCK_FREE 
 1a50 31005f5f 554c4143 43554d5f 49424954  1.__ULACCUM_IBIT
 1a60 5f5f2033 32005743 4841525f 4d415820  __ 32.WCHAR_MAX 
 1a70 285f5f57 43484152 5f4d4158 5f5f2900  (__WCHAR_MAX__).
 1a80 5f5f4c4c 46524143 545f4642 49545f5f  __LLFRACT_FBIT__
 1a90 20363300 5f5f494e 545f4c45 41535438   63.__INT_LEAST8
 1aa0 5f574944 54485f5f 2038005f 5f555341  _WIDTH__ 8.__USA
 1ab0 5f464249 545f5f20 3136005f 5f55494e  _FBIT__ 16.__UIN
 1ac0 54385f4d 41585f5f 20307866 66005f5f  T8_MAX__ 0xff.__
 1ad0 41524d5f 46454154 5552455f 49444956  ARM_FEATURE_IDIV
 1ae0 005f5f55 494e5431 365f4d41 585f5f20  .__UINT16_MAX__ 
 1af0 30786666 66660049 4e545f4c 45415354  0xffff.INT_LEAST
 1b00 33325f4d 494e2028 2d5f5f49 4e545f4c  32_MIN (-__INT_L
 1b10 45415354 33325f4d 41585f5f 202d2031  EAST32_MAX__ - 1
 1b20 29005549 4e543634 5f4d4158 20285f5f  ).UINT64_MAX (__
 1b30 55494e54 36345f4d 41585f5f 29005f5f  UINT64_MAX__).__
 1b40 41524d5f 46454154 5552455f 464d4100  ARM_FEATURE_FMA.
 1b50 5f5f5541 4343554d 5f464249 545f5f20  __UACCUM_FBIT__ 
 1b60 3136005f 5f5f696e 745f6c65 61737431  16.___int_least1
 1b70 365f745f 64656669 6e656420 31005f5f  6_t_defined 1.__
 1b80 5554415f 46424954 5f5f2036 34005f5f  UTA_FBIT__ 64.__
 1b90 494e544d 41585f57 49445448 5f5f2036  INTMAX_WIDTH__ 6
 1ba0 34005f5f 41524d5f 46454154 5552455f  4.__ARM_FEATURE_
 1bb0 43444500 5f5f4442 4c5f4953 5f494543  CDE.__DBL_IS_IEC
 1bc0 5f363035 35395f5f 20310055 494e545f  _60559__ 1.UINT_
 1bd0 4c454153 54385f4d 41582028 5f5f5549  LEAST8_MAX (__UI
 1be0 4e545f4c 45415354 385f4d41 585f5f29  NT_LEAST8_MAX__)
 1bf0 005f5f49 4e545f4c 45415354 31365f54  .__INT_LEAST16_T
 1c00 5950455f 5f207368 6f727420 696e7400  YPE__ short int.
 1c10 5f5f464c 5436345f 4841535f 51554945  __FLT64_HAS_QUIE
 1c20 545f4e41 4e5f5f20 31005f5f 4c465241  T_NAN__ 1.__LFRA
 1c30 43545f46 4249545f 5f203331 005f5f4c  CT_FBIT__ 31.__L
 1c40 45415354 33322022 6c22005f 5f44424c  EAST32 "l".__DBL
 1c50 5f444947 5f5f2031 35005f5f 5f696e74  _DIG__ 15.___int
 1c60 5f6c6561 73743332 5f745f64 6566696e  _least32_t_defin
 1c70 65642031 005f5f41 524d454c 5f5f2031  ed 1.__ARMEL__ 1
 1c80 005f5f41 524d5f41 5243485f 4953415f  .__ARM_ARCH_ISA_
 1c90 5448554d 42005f5f 4c414343 554d5f46  THUMB.__LACCUM_F
 1ca0 4249545f 5f203331 005f5f55 54515f49  BIT__ 31.__UTQ_I
 1cb0 4249545f 5f203000 5f5f464c 545f4d49  BIT__ 0.__FLT_MI
 1cc0 4e5f5f20 312e3137 35343934 33353038  N__ 1.1754943508
 1cd0 32323238 3735652d 33384600 55494e54  222875e-38F.UINT
 1ce0 4d41585f 4d415820 285f5f55 494e544d  MAX_MAX (__UINTM
 1cf0 41585f4d 41585f5f 29005f5f 464c5433  AX_MAX__).__FLT3
 1d00 32585f44 49475f5f 20313500 5f5f4143  2X_DIG__ 15.__AC
 1d10 43554d5f 45505349 4c4f4e5f 5f203078  CUM_EPSILON__ 0x
 1d20 31502d31 354b0049 4e543136 5f4d4158  1P-15K.INT16_MAX
 1d30 20285f5f 494e5431 365f4d41 585f5f29   (__INT16_MAX__)
 1d40 005f5f55 44515f46 4249545f 5f203634  .__UDQ_FBIT__ 64
 1d50 005f5f49 4e545f46 41535431 365f4d41  .__INT_FAST16_MA
 1d60 585f5f20 30783766 66666666 6666005f  X__ 0x7fffffff._
 1d70 5f48415f 49424954 5f5f2038 005f5f41  _HA_IBIT__ 8.__A
 1d80 524d5f41 5243485f 4953415f 5448554d  RM_ARCH_ISA_THUM
 1d90 42203100 55494e54 31365f43 28782920  B 1.UINT16_C(x) 
 1da0 5f5f5549 4e543136 5f432878 29005f5f  __UINT16_C(x).__
 1db0 5554515f 46424954 5f5f2031 3238006c  UTQ_FBIT__ 128.l
 1dc0 6f6e6720 6c6f6e67 20696e74 005f5f43  ong long int.__C
 1dd0 4841525f 4249545f 5f203800 5f5f464c  HAR_BIT__ 8.__FL
 1de0 54333258 5f49535f 4945435f 36303535  T32X_IS_IEC_6055
 1df0 395f5f20 31005f5f 41524d5f 4650005f  9__ 1.__ARM_FP._
 1e00 5f696e74 5f6c6561 73743634 5f745f64  _int_least64_t_d
 1e10 6566696e 65642031 005f5f49 4e545054  efined 1.__INTPT
 1e20 525f5749 4454485f 5f203332 005f5f55  R_WIDTH__ 32.__U
 1e30 494e545f 4c454153 54385f54 5950455f  INT_LEAST8_TYPE_
 1e40 5f20756e 7369676e 65642063 68617200  _ unsigned char.
 1e50 5f5f4c44 424c5f4d 41585f5f 20312e37  __LDBL_MAX__ 1.7
 1e60 39373639 33313334 38363233 31353765  976931348623157e
 1e70 2b333038 4c005f5f 46494e49 54455f4d  +308L.__FINITE_M
 1e80 4154485f 4f4e4c59 5f5f2030 005f5f53  ATH_ONLY__ 0.__S
 1e90 41434355 4d5f4d41 585f5f20 30583746  ACCUM_MAX__ 0X7F
 1ea0 4646502d 37484b00 5f5f6172 6d5f5f20  FFP-7HK.__arm__ 
 1eb0 31005f4e 45574c49 425f5645 5253494f  1._NEWLIB_VERSIO
 1ec0 4e202234 2e342e30 22005f5f 4c44424c  N "4.4.0".__LDBL
 1ed0 5f4d414e 545f4449 475f5f20 3533005f  _MANT_DIG__ 53._
 1ee0 5f54515f 49424954 5f5f2030 005f5f55  _TQ_IBIT__ 0.__U
 1ef0 48415f46 4249545f 5f203800 5f5f5356  HA_FBIT__ 8.__SV
 1f00 49445f56 49534942 4c452031 005f5f47  ID_VISIBLE 1.__G
 1f10 43435f41 534d5f46 4c41475f 4f555450  CC_ASM_FLAG_OUTP
 1f20 5554535f 5f203100 5f5f4152 4d5f4152  UTS__ 1.__ARM_AR
 1f30 43485f34 545f5f20 3100494e 545f4641  CH_4T__ 1.INT_FA
 1f40 53543136 5f4d4158 20285f5f 494e545f  ST16_MAX (__INT_
 1f50 46415354 31365f4d 41585f5f 29005f5f  FAST16_MAX__).__
 1f60 454c465f 5f203100 5f5f4152 4d5f4152  ELF__ 1.__ARM_AR
 1f70 43485f50 524f4649 4c45005f 5f544855  CH_PROFILE.__THU
 1f80 4d42454c 5f5f005f 5f494e54 31365f43  MBEL__.__INT16_C
 1f90 28632920 63005f5f 4743435f 48415645  (c) c.__GCC_HAVE
 1fa0 5f445741 5246325f 4346495f 41534d20  _DWARF2_CFI_ASM 
 1fb0 31005f5f 55494e54 36345f4d 41585f5f  1.__UINT64_MAX__
 1fc0 20307866 66666666 66666666 66666666   0xfffffffffffff
 1fd0 66666655 4c4c005f 5f4c4143 43554d5f  fffULL.__LACCUM_
 1fe0 4d41585f 5f203058 37464646 46464646  MAX__ 0X7FFFFFFF
 1ff0 46464646 46464646 502d3331 4c4b005f  FFFFFFFFP-31LK._
 2000 5f494e54 5f464153 5433325f 4d41585f  _INT_FAST32_MAX_
 2010 5f203078 37666666 66666666 005f5f55  _ 0x7fffffff.__U
 2020 53465241 43545f45 5053494c 4f4e5f5f  SFRACT_EPSILON__
 2030 20307831 502d3855 4852005f 5f41544f   0x1P-8UHR.__ATO
 2040 4d49435f 41435155 49524520 32005f5f  MIC_ACQUIRE 2.__
 2050 696e745f 6c656173 7431365f 745f6465  int_least16_t_de
 2060 66696e65 64203100 50545244 4946465f  fined 1.PTRDIFF_
 2070 4d415820 285f5f50 54524449 46465f4d  MAX (__PTRDIFF_M
 2080 41585f5f 29005f55 494e544d 41585f54  AX__)._UINTMAX_T
 2090 5f444543 4c415245 44200047 4e552043  _DECLARED .GNU C
 20a0 31372031 332e332e 31203230 32343036  17 13.3.1 202406
 20b0 3134202d 6d637075 3d61726d 3774646d  14 -mcpu=arm7tdm
 20c0 69202d6d 666c6f61 742d6162 693d736f  i -mfloat-abi=so
 20d0 6674202d 6d61726d 202d6d61 7263683d  ft -marm -march=
 20e0 61726d76 3474202d 6733202d 67647761  armv4t -g3 -gdwa
 20f0 72662d32 005f5f69 6e745f66 61737433  rf-2.__int_fast3
 2100 325f745f 64656669 6e656420 31005f5f  2_t_defined 1.__
 2110 53544443 5f5f2031 005f5f53 495a454f  STDC__ 1.__SIZEO
 2120 465f4c4f 4e475f5f 2034005f 5f696e74  F_LONG__ 4.__int
 2130 3230202b 32005f5f 44424c5f 4d41585f  20 +2.__DBL_MAX_
 2140 4558505f 5f203130 3234005f 44454641  EXP__ 1024._DEFA
 2150 554c545f 534f5552 4345005f 5f41544f  ULT_SOURCE.__ATO
 2160 4d49435f 434f4e53 554d4520 31005f5f  MIC_CONSUME 1.__
 2170 696e7433 325f745f 64656669 6e656420  int32_t_defined 
 2180 31005f5f 696e745f 6c656173 7433325f  1.__int_least32_
 2190 745f6465 66696e65 64203100 5f5f494e  t_defined 1.__IN
 21a0 545f4641 53543332 5f574944 54485f5f  T_FAST32_WIDTH__
 21b0 20333200 5f5f4152 4d5f4246 31365f46   32.__ARM_BF16_F
 21c0 4f524d41 545f414c 5445524e 41544956  ORMAT_ALTERNATIV
 21d0 4500494e 545f4641 53543136 5f4d494e  E.INT_FAST16_MIN
 21e0 20282d5f 5f494e54 5f464153 5431365f   (-__INT_FAST16_
 21f0 4d41585f 5f202d20 3129005f 5f57494e  MAX__ - 1).__WIN
 2200 545f5459 50455f5f 20756e73 69676e65  T_TYPE__ unsigne
 2210 6420696e 74005f5f 4c4f4e47 5f4d4158  d int.__LONG_MAX
 2220 5f5f2030 78376666 66666666 664c005f  __ 0x7fffffffL._
 2230 5f494e54 31365f4d 41585f5f 20307837  _INT16_MAX__ 0x7
 2240 66666600 5f5f554c 46524143 545f4642  fff.__ULFRACT_FB
 2250 49545f5f 20333200 5f5f5343 4841525f  IT__ 32.__SCHAR_
 2260 57494454 485f5f20 38005f5f 41434355  WIDTH__ 8.__ACCU
 2270 4d5f4d49 4e5f5f20 282d3058 31503135  M_MIN__ (-0X1P15
 2280 4b2d3058 31503135 4b29005f 5f53495a  K-0X1P15K).__SIZ
 2290 454f465f 444f5542 4c455f5f 2038005f  EOF_DOUBLE__ 8._
 22a0 5f474e55 435f5041 5443484c 4556454c  _GNUC_PATCHLEVEL
 22b0 5f5f2031 00494e54 36345f4d 494e2028  __ 1.INT64_MIN (
 22c0 2d5f5f49 4e543634 5f4d4158 5f5f202d  -__INT64_MAX__ -
 22d0 20312900 5f5f4758 585f5459 5045494e   1).__GXX_TYPEIN
 22e0 464f5f45 5155414c 4954595f 494e4c49  FO_EQUALITY_INLI
 22f0 4e452030 005f5f41 524d5f41 5243485f  NE 0.__ARM_ARCH_
 2300 4558545f 49444956 5f5f005f 5f465241  EXT_IDIV__.__FRA
 2310 43545f4d 41585f5f 20305837 46464650  CT_MAX__ 0X7FFFP
 2320 2d313552 005f5f57 494e545f 4d494e5f  -15R.__WINT_MIN_
 2330 5f203055 005f5f55 4c414343 554d5f46  _ 0U.__ULACCUM_F
 2340 4249545f 5f203332 005f5f46 4c545f4e  BIT__ 32.__FLT_N
 2350 4f524d5f 4d41585f 5f20332e 34303238  ORM_MAX__ 3.4028
 2360 32333436 36333835 32383836 652b3338  234663852886e+38
 2370 46005f5f 55465241 43545f4d 494e5f5f  F.__UFRACT_MIN__
 2380 20302e30 5552005f 5f494e54 38202268   0.0UR.__INT8 "h
 2390 6822005f 5f41524d 5f4e454f 4e5f4650  h".__ARM_NEON_FP
 23a0 005f494e 5431365f 545f4445 434c4152  ._INT16_T_DECLAR
 23b0 45442000 5f5f5354 44435f55 54465f31  ED .__STDC_UTF_1
 23c0 365f5f20 31005f5f 554c4c41 4343554d  6__ 1.__ULLACCUM
 23d0 5f494249 545f5f20 33320055 494e5433  _IBIT__ 32.UINT3
 23e0 325f4328 7829205f 5f55494e 5433325f  2_C(x) __UINT32_
 23f0 43287829 005f5f46 52414354 5f494249  C(x).__FRACT_IBI
 2400 545f5f20 30005f5f 4c44424c 5f4d494e  T__ 0.__LDBL_MIN
 2410 5f5f2032 2e323235 30373338 35383530  __ 2.22507385850
 2420 37323031 34652d33 30384c00 5f5f4c44  72014e-308L.__LD
 2430 424c5f48 41535f49 4e46494e 4954595f  BL_HAS_INFINITY_
 2440 5f203100 5f5f4743 435f4945 435f3535  _ 1.__GCC_IEC_55
 2450 395f434f 4d504c45 58203000 5f5f5549  9_COMPLEX 0.__UI
 2460 4e543332 5f4d4158 5f5f2030 78666666  NT32_MAX__ 0xfff
 2470 66666666 66554c00 5f5f4c44 424c5f4d  fffffUL.__LDBL_M
 2480 494e5f45 58505f5f 20282d31 30323129  IN_EXP__ (-1021)
 2490 005f5f55 4c4c4652 4143545f 46424954  .__ULLFRACT_FBIT
 24a0 5f5f2036 34005f5f 53495a45 4f465f57  __ 64.__SIZEOF_W
 24b0 43484152 5f545f5f 2034005f 5f41524d  CHAR_T__ 4.__ARM
 24c0 5f415243 485f4953 415f4152 4d203100  _ARCH_ISA_ARM 1.
 24d0 5352414d 5f424153 45203078 32303030  SRAM_BASE 0x2000
 24e0 30303030 005f5f46 4c4f4154 5f574f52  0000.__FLOAT_WOR
 24f0 445f4f52 4445525f 5f205f5f 4f524445  D_ORDER__ __ORDE
 2500 525f4c49 54544c45 5f454e44 49414e5f  R_LITTLE_ENDIAN_
 2510 5f005f5f 41434355 4d5f4d41 585f5f20  _.__ACCUM_MAX__ 
 2520 30583746 46464646 4646502d 31354b00  0X7FFFFFFFP-15K.
 2530 5f5f5349 5a455f57 49445448 5f5f2033  __SIZE_WIDTH__ 3
 2540 32005f5f 41524d5f 46454154 5552455f  2.__ARM_FEATURE_
 2550 4d564500 5f5f4c45 41535438 20226868  MVE.__LEAST8 "hh
 2560 22005f5f 5349475f 41544f4d 49435f4d  ".__SIG_ATOMIC_M
 2570 494e5f5f 20282d5f 5f534947 5f41544f  IN__ (-__SIG_ATO
 2580 4d49435f 4d41585f 5f202d20 3129005f  MIC_MAX__ - 1)._
 2590 5f4c4c46 52414354 5f455053 494c4f4e  _LLFRACT_EPSILON
 25a0 5f5f2030 7831502d 36334c4c 52005f5f  __ 0x1P-63LLR.__
 25b0 4c4f4e47 5f574944 54485f5f 20333200  LONG_WIDTH__ 32.
 25c0 5f5f5346 52414354 5f464249 545f5f20  __SFRACT_FBIT__ 
 25d0 37005f5f 43484152 33325f54 5950455f  7.__CHAR32_TYPE_
 25e0 5f206c6f 6e672075 6e736967 6e656420  _ long unsigned 
 25f0 696e7400 5f5f5346 52414354 5f494249  int.__SFRACT_IBI
 2600 545f5f20 30005f5f 41524d5f 46454154  T__ 0.__ARM_FEAT
 2610 5552455f 53415400 5f5f4152 4d5f5043  URE_SAT.__ARM_PC
 2620 53203100 5f5f4851 5f494249 545f5f20  S 1.__HQ_IBIT__ 
 2630 30005f5f 696e745f 66617374 31365f74  0.__int_fast16_t
 2640 5f646566 696e6564 2031005f 41544649  _defined 1._ATFI
 2650 4c455f53 4f555243 45203100 5f5f5553  LE_SOURCE 1.__US
 2660 45525f4c 4142454c 5f505245 4649585f  ER_LABEL_PREFIX_
 2670 5f20005f 5f464c54 5f44454e 4f524d5f  _ .__FLT_DENORM_
 2680 4d494e5f 5f20312e 34303132 39383436  MIN__ 1.40129846
 2690 34333234 38313731 652d3435 46005f5f  43248171e-45F.__
 26a0 55494e54 5f4c4541 53543332 5f545950  UINT_LEAST32_TYP
 26b0 455f5f20 6c6f6e67 20756e73 69676e65  E__ long unsigne
 26c0 6420696e 74005f5f 44515f46 4249545f  d int.__DQ_FBIT_
 26d0 5f203633 005f5f55 48415f49 4249545f  _ 63.__UHA_IBIT_
 26e0 5f203800 5f5f696e 7432305f 5f202b32  _ 8.__int20__ +2
 26f0 00494e54 31365f4d 494e2028 2d5f5f49  .INT16_MIN (-__I
 2700 4e543136 5f4d4158 5f5f202d 20312900  NT16_MAX__ - 1).
 2710 5f5f5349 475f4154 4f4d4943 5f574944  __SIG_ATOMIC_WID
 2720 54485f5f 20333200 5f5f4152 4d5f4645  TH__ 32.__ARM_FE
 2730 41545552 455f4246 31365f56 4543544f  ATURE_BF16_VECTO
 2740 525f4152 4954484d 45544943 005f5f47  R_ARITHMETIC.__G
 2750 4e55435f 50524552 45515f5f 286d612c  NUC_PREREQ__(ma,
 2760 6d692920 5f5f474e 55435f50 52455245  mi) __GNUC_PRERE
 2770 51286d61 2c206d69 29005f5f 46415354  Q(ma, mi).__FAST
 2780 3820005f 5f534852 545f4d41 585f5f20  8 .__SHRT_MAX__ 
 2790 30783766 6666005f 5f41524d 5f465031  0x7fff.__ARM_FP1
 27a0 365f4152 4753005f 5f4f5244 45525f50  6_ARGS.__ORDER_P
 27b0 44505f45 4e444941 4e5f5f20 33343132  DP_ENDIAN__ 3412
 27c0 005f5f53 515f4942 49545f5f 2030005f  .__SQ_IBIT__ 0._
 27d0 5f464c54 33325f4e 4f524d5f 4d41585f  _FLT32_NORM_MAX_
 27e0 5f20332e 34303238 32333436 36333835  _ 3.402823466385
 27f0 32383836 652b3338 46333200 5f5f464c  2886e+38F32.__FL
 2800 545f4445 43494d41 4c5f4449 475f5f20  T_DECIMAL_DIG__ 
 2810 39005f5f 494e5433 325f4d41 585f5f20  9.__INT32_MAX__ 
 2820 30783766 66666666 66664c00 5f5f5749  0x7fffffffL.__WI
 2830 4e545f57 49445448 5f5f2033 32007072  NT_WIDTH__ 32.pr
 2840 696e7400 73686f72 74005f5f 5551515f  int.short.__UQQ_
 2850 46424954 5f5f2038 005f5f55 53515f49  FBIT__ 8.__USQ_I
 2860 4249545f 5f203000 5f5f5349 5a454f46  BIT__ 0.__SIZEOF
 2870 5f494e54 5f5f2034 005f5f69 6e743136  _INT__ 4.__int16
 2880 5f745f64 6566696e 65642031 0073686f  _t_defined 1.sho
 2890 72742069 6e74005f 5f554652 4143545f  rt int.__UFRACT_
 28a0 45505349 4c4f4e5f 5f203078 31502d31  EPSILON__ 0x1P-1
 28b0 36555200 5f4d4143 48494e45 5f5f4445  6UR._MACHINE__DE
 28c0 4641554c 545f5459 5045535f 48200041  FAULT_TYPES_H .A
 28d0 545f4144 44522862 6173652c 6f666629  T_ADDR(base,off)
 28e0 20282a28 75696e74 33325f74 202a2928   (*(uint32_t *)(
 28f0 28626173 6529202b 20286f66 66292929  (base) + (off)))
 2900 005f5f49 4e545f4c 45415354 36345f57  .__INT_LEAST64_W
 2910 49445448 5f5f2036 34005f5f 494e5433  IDTH__ 64.__INT3
 2920 325f5459 50455f5f 206c6f6e 6720696e  2_TYPE__ long in
 2930 74005f5f 464c5433 32585f4d 494e5f31  t.__FLT32X_MIN_1
 2940 305f4558 505f5f20 282d3330 3729005f  0_EXP__ (-307)._
 2950 5f41524d 5f464541 54555245 5f424631  _ARM_FEATURE_BF1
 2960 365f5343 414c4152 5f415249 54484d45  6_SCALAR_ARITHME
 2970 54494300 6c6f6e67 20696e74 00494e54  TIC.long int.INT
 2980 5054525f 4d494e20 282d5f5f 494e5450  PTR_MIN (-__INTP
 2990 54525f4d 41585f5f 202d2031 29005f5f  TR_MAX__ - 1).__
 29a0 7468756d 62325f5f 005f5f4c 44424c5f  thumb2__.__LDBL_
 29b0 4d41585f 4558505f 5f203130 3234005f  MAX_EXP__ 1024._
 29c0 5f53515f 46424954 5f5f2033 31005f5f  _SQ_FBIT__ 31.__
 29d0 45585028 7829205f 5f202323 78202323  EXP(x) __ ##x ##
 29e0 5f5f005f 5f4c4652 4143545f 4d494e5f  __.__LFRACT_MIN_
 29f0 5f20282d 302e354c 522d302e 354c5229  _ (-0.5LR-0.5LR)
 2a00 005f5f57 43484152 5f4d494e 5f5f2030  .__WCHAR_MIN__ 0
 2a10 55005f5f 464c5436 345f4d41 585f5f20  U.__FLT64_MAX__ 
 2a20 312e3739 37363933 31333438 36323331  1.79769313486231
 2a30 3537652b 33303846 36340073 72632f30  57e+308F64.src/0
 2a40 375f745f 6269742e 63005f5f 494e5433  7_t_bit.c.__INT3
 2a50 3220226c 22005f5f 55494e54 5f4c4541  2 "l".__UINT_LEA
 2a60 53543332 5f4d4158 5f5f2030 78666666  ST32_MAX__ 0xfff
 2a70 66666666 66554c00 5f5f4743 435f4445  fffffUL.__GCC_DE
 2a80 53545255 43544956 455f5349 5a452036  STRUCTIVE_SIZE 6
 2a90 34005f5f 696e7432 305f5f00 5f5f7468  4.__int20__.__th
 2aa0 756d625f 5f005f5f 4c44424c 5f484153  umb__.__LDBL_HAS
 2ab0 5f515549 45545f4e 414e5f5f 2031005f  _QUIET_NAN__ 1._
 2ac0 5f494e54 385f5459 50455f5f 20736967  _INT8_TYPE__ sig
 2ad0 6e656420 63686172 005f5f57 494e545f  ned char.__WINT_
 2ae0 4d41585f 5f203078 66666666 66666666  MAX__ 0xffffffff
 2af0 55005749 4e545f4d 494e2028 5f5f5749  U.WINT_MIN (__WI
 2b00 4e545f4d 494e5f5f 2900494e 5433325f  NT_MIN__).INT32_
 2b10 4d415820 285f5f49 4e543332 5f4d4158  MAX (__INT32_MAX
 2b20 5f5f2900 5f5f494e 54363420 226c6c22  __).__INT64 "ll"
 2b30 005f5f4c 44424c5f 44454349 4d414c5f  .__LDBL_DECIMAL_
 2b40 4449475f 5f203137 005f5f4c 41524745  DIG__ 17.__LARGE
 2b50 46494c45 5f564953 49424c45 20300049  FILE_VISIBLE 0.I
 2b60 4e545f46 41535436 345f4d41 5820285f  NT_FAST64_MAX (_
 2b70 5f494e54 5f464153 5436345f 4d41585f  _INT_FAST64_MAX_
 2b80 5f29005f 494e5433 325f545f 4445434c  _)._INT32_T_DECL
 2b90 41524544 20005f5f 54515f46 4249545f  ARED .__TQ_FBIT_
 2ba0 5f203132 37005f5f 5548515f 46424954  _ 127.__UHQ_FBIT
 2bb0 5f5f2031 36005f5f 41524d5f 46454154  __ 16.__ARM_FEAT
 2bc0 5552455f 434f5052 4f432031 0055494e  URE_COPROC 1.UIN
 2bd0 54505452 5f4d4158 20285f5f 55494e54  TPTR_MAX (__UINT
 2be0 5054525f 4d41585f 5f29005f 5f55494e  PTR_MAX__).__UIN
 2bf0 545f4641 53543634 5f4d4158 5f5f2030  T_FAST64_MAX__ 0
 2c00 78666666 66666666 66666666 66666666  xfffffffffffffff
 2c10 66554c4c 005f5f55 494e545f 46415354  fULL.__UINT_FAST
 2c20 33325f4d 41585f5f 20307866 66666666  32_MAX__ 0xfffff
 2c30 66666655 005f5f49 4e543136 20226822  fffU.__INT16 "h"
 2c40 005f5f55 53465241 43545f46 4249545f  .__USFRACT_FBIT_
 2c50 5f203800 5f5f494e 5436345f 43286329  _ 8.__INT64_C(c)
 2c60 20632023 23204c4c 005f5f48 515f4642   c ## LL.__HQ_FB
 2c70 49545f5f 20313500 5f5f5743 4841525f  IT__ 15.__WCHAR_
 2c80 4d41585f 5f203078 66666666 66666666  MAX__ 0xffffffff
 2c90 55005f5f 53495a45 4f465f4c 4f4e475f  U.__SIZEOF_LONG_
 2ca0 4c4f4e47 5f5f2038 005f5f46 4c543634  LONG__ 8.__FLT64
 2cb0 5f49535f 4945435f 36303535 395f5f20  _IS_IEC_60559__ 
 2cc0 31005f5f 55494e54 385f5459 50455f5f  1.__UINT8_TYPE__
 2cd0 20756e73 69676e65 64206368 6172005f   unsigned char._
 2ce0 5f534852 545f5749 4454485f 5f203136  _SHRT_WIDTH__ 16
 2cf0 00494e54 36345f4d 41582028 5f5f494e  .INT64_MAX (__IN
 2d00 5436345f 4d41585f 5f29005f 5f41524d  T64_MAX__).__ARM
 2d10 5f464541 54555245 5f414553 005f5f55  _FEATURE_AES.__U
 2d20 494e545f 4c454153 5431365f 4d41585f  INT_LEAST16_MAX_
 2d30 5f203078 66666666 005f5f5f 696e7431  _ 0xffff.___int1
 2d40 365f745f 64656669 6e656420 31005f5f  6_t_defined 1.__
 2d50 464c545f 45505349 4c4f4e5f 5f20312e  FLT_EPSILON__ 1.
 2d60 31393230 39323839 35353037 38313235  1920928955078125
 2d70 652d3746 0053495a 455f4d41 5820285f  e-7F.SIZE_MAX (_
 2d80 5f53495a 455f4d41 585f5f29 005f5f49  _SIZE_MAX__).__I
 2d90 4e545f4c 45415354 36345f54 5950455f  NT_LEAST64_TYPE_
 2da0 5f206c6f 6e67206c 6f6e6720 696e7400  _ long long int.
 2db0 55494e54 4d41585f 43287829 205f5f55  UINTMAX_C(x) __U
 2dc0 494e544d 41585f43 28782900 5f5f5549  INTMAX_C(x).__UI
 2dd0 4e543332 5f545950 455f5f20 6c6f6e67  NT32_TYPE__ long
 2de0 20756e73 69676e65 6420696e 74005f5f   unsigned int.__
 2df0 4c44424c 5f4d494e 5f31305f 4558505f  LDBL_MIN_10_EXP_
 2e00 5f20282d 33303729 00534947 5f41544f  _ (-307).SIG_ATO
 2e10 4d49435f 4d494e20 282d5f5f 53544449  MIC_MIN (-__STDI
 2e20 4e545f45 58502849 4e545f4d 41582920  NT_EXP(INT_MAX) 
 2e30 2d203129 005f5f53 495a454f 465f504f  - 1).__SIZEOF_PO
 2e40 494e5445 525f5f20 34005f5f 55414343  INTER__ 4.__UACC
 2e50 554d5f4d 41585f5f 20305846 46464646  UM_MAX__ 0XFFFFF
 2e60 46464650 2d313655 4b005f5f 5646505f  FFFP-16UK.__VFP_
 2e70 46505f5f 2031005f 5f554c46 52414354  FP__ 1.__ULFRACT
 2e80 5f4d4158 5f5f2030 58464646 46464646  _MAX__ 0XFFFFFFF
 2e90 46502d33 32554c52 005f5f48 415f4642  FP-32ULR.__HA_FB
 2ea0 49545f5f 2037005f 5f505452 44494646  IT__ 7.__PTRDIFF
 2eb0 5f574944 54485f5f 20333200 5f5f464c  _WIDTH__ 32.__FL
 2ec0 5433325f 44454e4f 524d5f4d 494e5f5f  T32_DENORM_MIN__
 2ed0 20312e34 30313239 38343634 33323438   1.4012984643248
 2ee0 31373165 2d343546 3332005f 5f49534f  171e-45F32.__ISO
 2ef0 5f435f56 49534942 4c452032 30313100  _C_VISIBLE 2011.
 2f00 5f5f5341 4343554d 5f4d494e 5f5f2028  __SACCUM_MIN__ (
 2f10 2d305831 5037484b 2d305831 5037484b  -0X1P7HK-0X1P7HK
 2f20 29005f5f 494e545f 57494454 485f5f20  ).__INT_WIDTH__ 
 2f30 3332005f 5f474343 5f41544f 4d49435f  32.__GCC_ATOMIC_
 2f40 504f494e 5445525f 4c4f434b 5f465245  POINTER_LOCK_FRE
 2f50 45203100 5f5f5549 4e543634 5f432863  E 1.__UINT64_C(c
 2f60 29206320 23232055 4c4c005f 5f4c4143  ) c ## ULL.__LAC
 2f70 43554d5f 45505349 4c4f4e5f 5f203078  CUM_EPSILON__ 0x
 2f80 31502d33 314c4b00 6d61696e 005f5f53  1P-31LK.main.__S
 2f90 46524143 545f4550 53494c4f 4e5f5f20  FRACT_EPSILON__ 
 2fa0 30783150 2d374852 00494e54 5f464153  0x1P-7HR.INT_FAS
 2fb0 5436345f 4d494e20 282d5f5f 494e545f  T64_MIN (-__INT_
 2fc0 46415354 36345f4d 41585f5f 202d2031  FAST64_MAX__ - 1
 2fd0 29005f5f 5551515f 49424954 5f5f2030  ).__UQQ_IBIT__ 0
 2fe0 005f5f46 4c543332 585f4d41 585f5f20  .__FLT32X_MAX__ 
 2ff0 312e3739 37363933 31333438 36323331  1.79769313486231
 3000 3537652b 33303846 33327800 5f5f5553  57e+308F32x.__US
 3010 515f4642 49545f5f 20333200 5f5f5354  Q_FBIT__ 32.__ST
 3020 44435f56 45525349 4f4e5f5f 20323031  DC_VERSION__ 201
 3030 3731304c 006c6f6e 6720756e 7369676e  710L.long unsign
 3040 65642069 6e74005f 5f41524d 5f454142  ed int.__ARM_EAB
 3050 495f5f20 31005f5f 4743435f 41544f4d  I__ 1.__GCC_ATOM
 3060 49435f43 48415233 325f545f 4c4f434b  IC_CHAR32_T_LOCK
 3070 5f465245 45203100 5f5f5f69 6e743332  _FREE 1.___int32
 3080 5f745f64 6566696e 65642031 0055494e  _t_defined 1.UIN
 3090 545f4641 53543332 5f4d4158 20285f5f  T_FAST32_MAX (__
 30a0 55494e54 5f464153 5433325f 4d41585f  UINT_FAST32_MAX_
 30b0 5f29005f 5359535f 5f494e54 5355505f  _)._SYS__INTSUP_
 30c0 48200049 4e545f4c 45415354 36345f4d  H .INT_LEAST64_M
 30d0 41582028 5f5f494e 545f4c45 41535436  AX (__INT_LEAST6
 30e0 345f4d41 585f5f29 00574348 41525f4d  4_MAX__).WCHAR_M
 30f0 494e2028 5f5f5743 4841525f 4d494e5f  IN (__WCHAR_MIN_
 3100 5f29005f 5f465241 43545f45 5053494c  _).__FRACT_EPSIL
 3110 4f4e5f5f 20307831 502d3135 52005f5f  ON__ 0x1P-15R.__
 3120 53544443 5f484f53 5445445f 5f203100  STDC_HOSTED__ 1.
 3130 5f55494e 54505452 5f545f44 45434c41  _UINTPTR_T_DECLA
 3140 52454420 0055494e 545f4641 5354385f  RED .UINT_FAST8_
 3150 4d415820 285f5f55 494e545f 46415354  MAX (__UINT_FAST
 3160 385f4d41 585f5f29 005f5f49 4e545054  8_MAX__).__INTPT
 3170 525f4d41 585f5f20 30783766 66666666  R_MAX__ 0x7fffff
 3180 6666005f 5f505241 474d415f 52454445  ff.__PRAGMA_REDE
 3190 46494e45 5f455854 4e414d45 2031005f  FINE_EXTNAME 1._
 31a0 5f534f46 5446505f 5f203100 5f5f5354  _SOFTFP__ 1.__ST
 31b0 44494e54 5f455850 28782920 5f5f2023  DINT_EXP(x) __ #
 31c0 23782023 235f5f00 5f5f464c 5436345f  #x ##__.__FLT64_
 31d0 45505349 4c4f4e5f 5f20322e 32323034  EPSILON__ 2.2204
 31e0 34363034 39323530 33313331 652d3136  460492503131e-16
 31f0 46363400 5f494e54 385f545f 4445434c  F64._INT8_T_DECL
 3200 41524544 20005f5f 696e745f 6c656173  ARED .__int_leas
 3210 74385f74 5f646566 696e6564 2031005f  t8_t_defined 1._
 3220 5f474343 5f41544f 4d49435f 4c4c4f4e  _GCC_ATOMIC_LLON
 3230 475f4c4f 434b5f46 52454520 3100494e  G_LOCK_FREE 1.IN
 3240 545f4641 5354385f 4d494e20 282d5f5f  T_FAST8_MIN (-__
 3250 494e545f 46415354 385f4d41 585f5f20  INT_FAST8_MAX__ 
 3260 2d203129 005f5f46 4c545f4d 41585f45  - 1).__FLT_MAX_E
 3270 58505f5f 20313238 005f5f41 544f4d49  XP__ 128.__ATOMI
 3280 435f4143 515f5245 4c203400 5f5f5549  C_ACQ_REL 4.__UI
 3290 4e545f46 41535436 345f5459 50455f5f  NT_FAST64_TYPE__
 32a0 206c6f6e 67206c6f 6e672075 6e736967   long long unsig
 32b0 6e656420 696e7400 756e7369 676e6564  ned int.unsigned
 32c0 20636861 7200494e 54385f4d 41582028   char.INT8_MAX (
 32d0 5f5f494e 54385f4d 41585f5f 29005f5f  __INT8_MAX__).__
 32e0 55494e54 4d41585f 54595045 5f5f206c  UINTMAX_TYPE__ l
 32f0 6f6e6720 6c6f6e67 20756e73 69676e65  ong long unsigne
 3300 6420696e 74005f5f 75696e74 33325f74  d int.__uint32_t
 3310 005f5f46 4c543332 585f4e4f 524d5f4d  .__FLT32X_NORM_M
 3320 41585f5f 20312e37 39373639 33313334  AX__ 1.797693134
 3330 38363233 31353765 2b333038 46333278  8623157e+308F32x
 3340 005f5f4c 44424c5f 45505349 4c4f4e5f  .__LDBL_EPSILON_
 3350 5f20322e 32323034 34363034 39323530  _ 2.220446049250
 3360 33313331 652d3136 4c005f5f 494e5450  3131e-16L.__INTP
 3370 54525f54 5950455f 5f20696e 74005f5f  TR_TYPE__ int.__
 3380 4445435f 4556414c 5f4d4554 484f445f  DEC_EVAL_METHOD_
 3390 5f203200 5f5f5553 41434355 4d5f4d49  _ 2.__USACCUM_MI
 33a0 4e5f5f20 302e3055 484b0055 494e545f  N__ 0.0UHK.UINT_
 33b0 46415354 36345f4d 41582028 5f5f5549  FAST64_MAX (__UI
 33c0 4e545f46 41535436 345f4d41 585f5f29  NT_FAST64_MAX__)
 33d0 005f5f55 53465241 43545f49 4249545f  .__USFRACT_IBIT_
 33e0 5f203000 5f5f494e 545f4c45 41535433  _ 0.__INT_LEAST3
 33f0 325f5749 4454485f 5f203332 005f5f41  2_WIDTH__ 32.__A
 3400 524d5f46 45415455 52455f44 5350005f  RM_FEATURE_DSP._
 3410 5f474e55 435f5749 44455f45 58454355  _GNUC_WIDE_EXECU
 3420 54494f4e 5f434841 52534554 5f4e414d  TION_CHARSET_NAM
 3430 45202255 54462d33 324c4522 005f5f55  E "UTF-32LE".__U
 3440 494e545f 46415354 33325f54 5950455f  INT_FAST32_TYPE_
 3450 5f20756e 7369676e 65642069 6e74005f  _ unsigned int._
 3460 5f44515f 49424954 5f5f2030 005f5f46  _DQ_IBIT__ 0.__F
 3470 4c545f4d 41585f5f 20332e34 30323832  LT_MAX__ 3.40282
 3480 33343636 33383532 38383665 2b333846  34663852886e+38F
 3490 005f5f46 4c543332 5f4d494e 5f5f2031  .__FLT32_MIN__ 1
 34a0 2e313735 34393433 35303832 32323837  .175494350822287
 34b0 35652d33 38463332 005f5f53 495a455f  5e-38F32.__SIZE_
 34c0 54595045 5f5f2075 6e736967 6e656420  TYPE__ unsigned 
 34d0 696e7400 5f5f4154 46494c45 5f564953  int.__ATFILE_VIS
 34e0 49424c45 2031005f 5f554c4c 41434355  IBLE 1.__ULLACCU
 34f0 4d5f4642 49545f5f 20333200 756e7369  M_FBIT__ 32.unsi
 3500 676e6564 202b3000 5f5f464c 5436345f  gned +0.__FLT64_
 3510 4d494e5f 4558505f 5f20282d 31303231  MIN_EXP__ (-1021
 3520 29005f5f 45585000 494e5436 345f4328  ).__EXP.INT64_C(
 3530 7829205f 5f494e54 36345f43 28782900  x) __INT64_C(x).
 3540 5f5f4652 4143545f 46424954 5f5f2031  __FRACT_FBIT__ 1
 3550 35005f50 4f534958 5f534f55 52434520  5._POSIX_SOURCE 
 3560 31005f5f 5f696e74 5f6c6561 7374385f  1.___int_least8_
 3570 745f6465 66696e65 64203100 494e545f  t_defined 1.INT_
 3580 46415354 33325f4d 41582028 5f5f494e  FAST32_MAX (__IN
 3590 545f4641 53543332 5f4d4158 5f5f2900  T_FAST32_MAX__).
 35a0 5f5f5554 415f4942 49545f5f 20363400  __UTA_IBIT__ 64.
 35b0 5f5f464c 545f4d49 4e5f3130 5f455850  __FLT_MIN_10_EXP
 35c0 5f5f2028 2d333729 005f5f46 4c545f49  __ (-37).__FLT_I
 35d0 535f4945 435f3630 3535395f 5f203100  S_IEC_60559__ 1.
 35e0 5f5f464c 54333258 5f455053 494c4f4e  __FLT32X_EPSILON
 35f0 5f5f2032 2e323230 34343630 34393235  __ 2.22044604925
 3600 30333133 31652d31 36463332 78005f5f  03131e-16F32x.__
 3610 464c545f 4556414c 5f4d4554 484f445f  FLT_EVAL_METHOD_
 3620 54535f31 38363631 5f335f5f 2030005f  TS_18661_3__ 0._
 3630 5f44424c 5f484153 5f494e46 494e4954  _DBL_HAS_INFINIT
 3640 595f5f20 31005f5f 494e545f 46415354  Y__ 1.__INT_FAST
 3650 33325f54 5950455f 5f20696e 74005f5f  32_TYPE__ int.__
 3660 464c545f 4841535f 51554945 545f4e41  FLT_HAS_QUIET_NA
 3670 4e5f5f20 31005f5f 55494e54 5f4c4541  N__ 1.__UINT_LEA
 3680 5354385f 4d41585f 5f203078 6666005f  ST8_MAX__ 0xff._
 3690 5f494e54 4d41585f 54595045 5f5f206c  _INTMAX_TYPE__ l
 36a0 6f6e6720 6c6f6e67 20696e74 005f494e  ong long int._IN
 36b0 5433325f 45515f4c 4f4e4720 005f5f49  T32_EQ_LONG .__I
 36c0 4e544d41 585f4328 63292063 20232320  NTMAX_C(c) c ## 
 36d0 4c4c005f 5f41524d 5f464541 54555245  LL.__ARM_FEATURE
 36e0 5f465031 365f5645 43544f52 5f415249  _FP16_VECTOR_ARI
 36f0 54484d45 54494300 5f5f4150 43535f33  THMETIC.__APCS_3
 3700 325f5f20 31005f55 494e5438 5f545f44  2__ 1._UINT8_T_D
 3710 45434c41 52454420 00494e54 4d41585f  ECLARED .INTMAX_
 3720 43287829 205f5f49 4e544d41 585f4328  C(x) __INTMAX_C(
 3730 7829005f 5f44424c 5f44454e 4f524d5f  x).__DBL_DENORM_
 3740 4d494e5f 5f202828 646f7562 6c652934  MIN__ ((double)4
 3750 2e393430 36353634 35383431 32343635  .940656458412465
 3760 34652d33 32344c29 005f5f55 494e5436  4e-324L).__UINT6
 3770 345f5459 50455f5f 206c6f6e 67206c6f  4_TYPE__ long lo
 3780 6e672075 6e736967 6e656420 696e7400  ng unsigned int.
 3790 494e544d 41585f4d 41582028 5f5f494e  INTMAX_MAX (__IN
 37a0 544d4158 5f4d4158 5f5f2900 665f7074  TMAX_MAX__).f_pt
 37b0 7231005f 5f44424c 5f4d4158 5f31305f  r1.__DBL_MAX_10_
 37c0 4558505f 5f203330 38005f5f 464c5433  EXP__ 308.__FLT3
 37d0 32585f4d 494e5f5f 20322e32 32353037  2X_MIN__ 2.22507
 37e0 33383538 35303732 30313465 2d333038  38585072014e-308
 37f0 46333278 0073686f 72742075 6e736967  F32x.short unsig
 3800 6e656420 696e7400 494e5438 5f4d494e  ned int.INT8_MIN
 3810 20282d5f 5f494e54 385f4d41 585f5f20   (-__INT8_MAX__ 
 3820 2d203129 005f5f54 415f4942 49545f5f  - 1).__TA_IBIT__
 3830 20363400 5f5f5151 5f464249 545f5f20   64.__QQ_FBIT__ 
 3840 37004861 72644661 756c745f 48616e64  7.HardFault_Hand
 3850 6c657200 5f5f5645 5253494f 4e5f5f20  ler.__VERSION__ 
 3860 2231332e 332e3120 32303234 30363134  "13.3.1 20240614
 3870 22005f5f 696e745f 66617374 36345f74  ".__int_fast64_t
 3880 5f646566 696e6564 2031005f 494e5450  _defined 1._INTP
 3890 54525f54 5f444543 4c415245 4420005f  TR_T_DECLARED ._
 38a0 5f55494e 545f4c45 41535431 365f5459  _UINT_LEAST16_TY
 38b0 50455f5f 2073686f 72742075 6e736967  PE__ short unsig
 38c0 6e656420 696e7400 494e545f 46415354  ned int.INT_FAST
 38d0 385f4d41 5820285f 5f494e54 5f464153  8_MAX (__INT_FAS
 38e0 54385f4d 41585f5f 29005f5f 494e545f  T8_MAX__).__INT_
 38f0 46415354 385f5749 4454485f 5f203332  FAST8_WIDTH__ 32
 3900 00505452 44494646 5f4d494e 20282d50  .PTRDIFF_MIN (-P
 3910 54524449 46465f4d 4158202d 20312900  TRDIFF_MAX - 1).
 3920 5f5f464c 545f4d49 4e5f4558 505f5f20  __FLT_MIN_EXP__ 
 3930 282d3132 3529005f 5f474343 5f41544f  (-125).__GCC_ATO
 3940 4d49435f 424f4f4c 5f4c4f43 4b5f4652  MIC_BOOL_LOCK_FR
 3950 45452031 0057494e 545f4d41 5820285f  EE 1.WINT_MAX (_
 3960 5f57494e 545f4d41 585f5f29 005f5f44  _WINT_MAX__).__D
 3970 4543494d 414c5f44 49475f5f 20313700  ECIMAL_DIG__ 17.
 3980 5f5f494e 5433325f 43286329 20632023  __INT32_C(c) c #
 3990 23204c00 5f494e54 36345f54 5f444543  # L._INT64_T_DEC
 39a0 4c415245 4420005f 5f41524d 5f464541  LARED .__ARM_FEA
 39b0 54555245 5f504155 5448005f 5f4c4442  TURE_PAUTH.__LDB
 39c0 4c5f4d41 585f3130 5f455850 5f5f2033  L_MAX_10_EXP__ 3
 39d0 3038005f 5f464c54 3332585f 4d41585f  08.__FLT32X_MAX_
 39e0 31305f45 58505f5f 20333038 005f5f55  10_EXP__ 308.__U
 39f0 494e5450 54525f4d 41585f5f 20307866  INTPTR_MAX__ 0xf
 3a00 66666666 66666655 005f5f44 424c5f48  fffffffU.__DBL_H
 3a10 41535f44 454e4f52 4d5f5f20 31005f5f  AS_DENORM__ 1.__
 3a20 474e5543 5f455845 43555449 4f4e5f43  GNUC_EXECUTION_C
 3a30 48415253 45545f4e 414d4520 22555446  HARSET_NAME "UTF
 3a40 2d382200 5f5f6861 76655f6c 6f6e676c  -8".__have_longl
 3a50 6f6e6736 34203100 55494e54 385f4d41  ong64 1.UINT8_MA
 3a60 5820285f 5f55494e 54385f4d 41585f5f  X (__UINT8_MAX__
 3a70 29005f5f 41524d5f 46454154 5552455f  ).__ARM_FEATURE_
 3a80 43524333 32005f5f 464c5433 325f4d41  CRC32.__FLT32_MA
 3a90 585f3130 5f455850 5f5f2033 38005f5f  X_10_EXP__ 38.__
 3aa0 41524d5f 46454154 5552455f 434c5a00  ARM_FEATURE_CLZ.
 3ab0 5f5f4c46 52414354 5f4d4158 5f5f2030  __LFRACT_MAX__ 0
 3ac0 58374646 46464646 46502d33 314c5200  X7FFFFFFFP-31LR.
 3ad0 494e5438 5f432878 29205f5f 494e5438  INT8_C(x) __INT8
 3ae0 5f432878 29005f5f 494e545f 4c454153  _C(x).__INT_LEAS
 3af0 5433325f 4d41585f 5f203078 37666666  T32_MAX__ 0x7fff
 3b00 66666666 4c005549 4e545f46 41535431  ffffL.UINT_FAST1
 3b10 365f4d41 5820285f 5f55494e 545f4641  6_MAX (__UINT_FA
 3b20 53543136 5f4d4158 5f5f2900 6c6f6e67  ST16_MAX__).long
 3b30 202b3400 5f5f4743 435f4154 4f4d4943   +4.__GCC_ATOMIC
 3b40 5f4c4f4e 475f4c4f 434b5f46 52454520  _LONG_LOCK_FREE 
 3b50 31005f5f 55494e54 4d41585f 4d41585f  1.__UINTMAX_MAX_
 3b60 5f203078 66666666 66666666 66666666  _ 0xffffffffffff
 3b70 66666666 554c4c00 5f5f5349 475f4154  ffffULL.__SIG_AT
 3b80 4f4d4943 5f545950 455f5f20 696e7400  OMIC_TYPE__ int.
 3b90 5f5f4c4c 46524143 545f4d49 4e5f5f20  __LLFRACT_MIN__ 
 3ba0 282d302e 354c4c52 2d302e35 4c4c5229  (-0.5LLR-0.5LLR)
 3bb0 005f5f55 4c4c4652 4143545f 45505349  .__ULLFRACT_EPSI
 3bc0 4c4f4e5f 5f203078 31502d36 34554c4c  LON__ 0x1P-64ULL
 3bd0 52005f5f 4c44424c 5f484153 5f44454e  R.__LDBL_HAS_DEN
 3be0 4f524d5f 5f203100 5f5f4152 4d5f4645  ORM__ 1.__ARM_FE
 3bf0 41545552 455f4c44 52455800 5f5f4c44  ATURE_LDREX.__LD
 3c00 424c5f4e 4f524d5f 4d41585f 5f20312e  BL_NORM_MAX__ 1.
 3c10 37393736 39333133 34383632 33313537  7976931348623157
 3c20 652b3330 384c005f 5f554c4c 41434355  e+308L.__ULLACCU
 3c30 4d5f4550 53494c4f 4e5f5f20 30783150  M_EPSILON__ 0x1P
 3c40 2d333255 4c4c4b00 5f5f5553 41434355  -32ULLK.__USACCU
 3c50 4d5f4642 49545f5f 2038005f 5f464c54  M_FBIT__ 8.__FLT
 3c60 5f484153 5f44454e 4f524d5f 5f203100  _HAS_DENORM__ 1.
 3c70 5f5f494e 545f4641 53543634 5f574944  __INT_FAST64_WID
 3c80 54485f5f 20363400 5f5f4442 4c5f4445  TH__ 64.__DBL_DE
 3c90 43494d41 4c5f4449 475f5f20 313700    CIMAL_DIG__ 17. 
Contents of section .comment:
 0000 00474343 3a202841 726d2047 4e552054  .GCC: (Arm GNU T
 0010 6f6f6c63 6861696e 2031332e 332e5265  oolchain 13.3.Re
 0020 6c312028 4275696c 64206172 6d2d3133  l1 (Build arm-13
 0030 2e323429 29203133 2e332e31 20323032  .24)) 13.3.1 202
 0040 34303631 3400                        40614.          
Contents of section .debug_frame:
 0000 0c000000 ffffffff 0100027c 0e0c0d00  ...........|....
 0010 1c000000 00000000 00000000 18000000  ................
 0020 420e048b 01420d0b 440d0d42 cb0e0000  B....B..D..B....
 0030 1c000000 00000000 18000000 e4000000  ................
 0040 420e048b 01420d0b 026a0d0d 42cb0e00  B....B...j..B...
 0050 18000000 00000000 fc000000 48000000  ............H...
 0060 420e088b 028e0142 0c0b0400           B......B....    
Contents of section .ARM.attributes:
 0000 41290000 00616561 62690001 1f000000  A)...aeabi......
 0010 05345400 06020801 09011204 14011501  .4T.............
 0020 17031801 19011a01 1e06               ..........      

Disassembly of section .text:

00000000 <HardFault_Handler>:
code : #include <stdint.h>
code : #define SRAM_BASE 0x20000000
code : #define AT_ADDR(base, off) (*(uint32_t *)((base) + (off)))
code : void HardFault_Handler()
code : {
   0:	e52db004 	push	{fp}		@ (str fp, [sp, #-4]!)
   4:	e28db000 	add	fp, sp, #0
code :     // __asm volatile("MRS R0,CONTROL"); // read CONTROL into R0
code :     // _change_access_lvl_PAL();
code :     // print("Hard Fault");
code : }
   8:	e1a00000 	nop			@ (mov r0, r0)
   c:	e28bd000 	add	sp, fp, #0
  10:	e49db004 	pop	{fp}		@ (ldr fp, [sp], #4)
  14:	e12fff1e 	bx	lr

00000018 <print>:
code : void print(char *str)
code : {
  18:	e52db004 	push	{fp}		@ (str fp, [sp, #-4]!)
  1c:	e28db000 	add	fp, sp, #0
  20:	e24dd01c 	sub	sp, sp, #28
  24:	e50b0018 	str	r0, [fp, #-24]	@ 0xffffffe8
code :     int count = 0;
  28:	e3a03000 	mov	r3, #0
  2c:	e50b3008 	str	r3, [fp, #-8]
code :     int i;
code :     for (i = 0; str[i] != '\0'; i++)
  30:	e3a03000 	mov	r3, #0
  34:	e50b300c 	str	r3, [fp, #-12]
  38:	ea00000c 	b	70 <print+0x58>
code :     {
code :         count++;
  3c:	e51b3008 	ldr	r3, [fp, #-8]
  40:	e2833001 	add	r3, r3, #1
  44:	e50b3008 	str	r3, [fp, #-8]
code :         AT_ADDR(SRAM_BASE, i) = str[i];
  48:	e51b300c 	ldr	r3, [fp, #-12]
  4c:	e51b2018 	ldr	r2, [fp, #-24]	@ 0xffffffe8
  50:	e0823003 	add	r3, r2, r3
  54:	e5d32000 	ldrb	r2, [r3]
  58:	e51b300c 	ldr	r3, [fp, #-12]
  5c:	e2833202 	add	r3, r3, #536870912	@ 0x20000000
  60:	e5832000 	str	r2, [r3]
code :     for (i = 0; str[i] != '\0'; i++)
  64:	e51b300c 	ldr	r3, [fp, #-12]
  68:	e2833001 	add	r3, r3, #1
  6c:	e50b300c 	str	r3, [fp, #-12]
  70:	e51b300c 	ldr	r3, [fp, #-12]
  74:	e51b2018 	ldr	r2, [fp, #-24]	@ 0xffffffe8
  78:	e0823003 	add	r3, r2, r3
  7c:	e5d33000 	ldrb	r3, [r3]
  80:	e3530000 	cmp	r3, #0
  84:	1affffec 	bne	3c <print+0x24>
code :     }
code : 
code :     count = 16 - (count % 16);
  88:	e51b3008 	ldr	r3, [fp, #-8]
  8c:	e2732000 	rsbs	r2, r3, #0
  90:	e203300f 	and	r3, r3, #15
  94:	e202200f 	and	r2, r2, #15
  98:	52623000 	rsbpl	r3, r2, #0
  9c:	e2633010 	rsb	r3, r3, #16
  a0:	e50b3008 	str	r3, [fp, #-8]
code :     for (int j = 0; j < count; j++)
  a4:	e3a03000 	mov	r3, #0
  a8:	e50b3010 	str	r3, [fp, #-16]
  ac:	ea000009 	b	d8 <print+0xc0>
code :     {
code :         AT_ADDR(SRAM_BASE, (i + j)) = ' ';
  b0:	e51b200c 	ldr	r2, [fp, #-12]
  b4:	e51b3010 	ldr	r3, [fp, #-16]
  b8:	e0823003 	add	r3, r2, r3
  bc:	e2833202 	add	r3, r3, #536870912	@ 0x20000000
  c0:	e1a02003 	mov	r2, r3
  c4:	e3a03020 	mov	r3, #32
  c8:	e5823000 	str	r3, [r2]
code :     for (int j = 0; j < count; j++)
  cc:	e51b3010 	ldr	r3, [fp, #-16]
  d0:	e2833001 	add	r3, r3, #1
  d4:	e50b3010 	str	r3, [fp, #-16]
  d8:	e51b2010 	ldr	r2, [fp, #-16]
  dc:	e51b3008 	ldr	r3, [fp, #-8]
  e0:	e1520003 	cmp	r2, r3
  e4:	bafffff1 	blt	b0 <print+0x98>
code :     }
code : }
  e8:	e1a00000 	nop			@ (mov r0, r0)
  ec:	e1a00000 	nop			@ (mov r0, r0)
  f0:	e28bd000 	add	sp, fp, #0
  f4:	e49db004 	pop	{fp}		@ (ldr fp, [sp], #4)
  f8:	e12fff1e 	bx	lr

000000fc <main>:
code : int main()
code : {
  fc:	e92d4800 	push	{fp, lr}
 100:	e28db004 	add	fp, sp, #4
 104:	e24dd010 	sub	sp, sp, #16
code : 
code :     // __asm volatile(
code :     //     "B 0x20000001" // Branch to an odd address //
code :     // );
code :     // uint32_t (*f_ptr1)(char *str) = (void *)0x8000118;
code :     uint32_t (*f_ptr1)(char *str) = print;
 108:	e59f3024 	ldr	r3, [pc, #36]	@ 134 <main+0x38>
 10c:	e50b3008 	str	r3, [fp, #-8]
code : 
code :     uint32_t (*f_ptr2)(char *str) = HardFault_Handler;
 110:	e59f3020 	ldr	r3, [pc, #32]	@ 138 <main+0x3c>
 114:	e50b300c 	str	r3, [fp, #-12]
code :     uint32_t (*f_ptr3)(char *str) = main;
 118:	e59f301c 	ldr	r3, [pc, #28]	@ 13c <main+0x40>
 11c:	e50b3010 	str	r3, [fp, #-16]
code :     f_ptr1("Hello");
 120:	e51b3008 	ldr	r3, [fp, #-8]
 124:	e59f0014 	ldr	r0, [pc, #20]	@ 140 <main+0x44>
 128:	e1a0e00f 	mov	lr, pc
 12c:	e12fff13 	bx	r3
code :     // uint32_t (*f_ptr4)(char *str) = Default_Handler;
code :     // f_ptr("HEllo");
code :     for (;;)
 130:	eafffffe 	b	130 <main+0x34>
	...
Contents of the .debug_info section (loaded from temp/firmware_disassembly.txt.o):

  Compilation Unit @ offset 0:
   Length:        0x172 (32-bit)
   Version:       2
   Abbrev Offset: 0
   Pointer Size:  4
 <0><b>: Abbrev Number: 1 (DW_TAG_compile_unit)
    <c>   DW_AT_producer    : (indirect string, offset: 0x209b): GNU C17 13.3.1 20240614 -mcpu=arm7tdmi -mfloat-abi=soft -marm -march=armv4t -g3 -gdwarf-2
    <10>   DW_AT_language    : 12	(ANSI C99)
    <11>   DW_AT_name        : (indirect string, offset: 0x2a3b): src/07_t_bit.c
    <15>   DW_AT_comp_dir    : (indirect string, offset: 0x942): /home/adi/data/stm32f1
    <19>   DW_AT_low_pc      : 0
    <1d>   DW_AT_high_pc     : 0x144
    <21>   DW_AT_stmt_list   : 0
    <25>   DW_AT_GNU_macros  : 0
 <1><29>: Abbrev Number: 2 (DW_TAG_base_type)
    <2a>   DW_AT_byte_size   : 1
    <2b>   DW_AT_encoding    : 6	(signed char)
    <2c>   DW_AT_name        : (indirect string, offset: 0xbab): signed char
 <1><30>: Abbrev Number: 2 (DW_TAG_base_type)
    <31>   DW_AT_byte_size   : 1
    <32>   DW_AT_encoding    : 8	(unsigned char)
    <33>   DW_AT_name        : (indirect string, offset: 0x32b8): unsigned char
 <1><37>: Abbrev Number: 2 (DW_TAG_base_type)
    <38>   DW_AT_byte_size   : 2
    <39>   DW_AT_encoding    : 5	(signed)
    <3a>   DW_AT_name        : (indirect string, offset: 0x288d): short int
 <1><3e>: Abbrev Number: 2 (DW_TAG_base_type)
    <3f>   DW_AT_byte_size   : 2
    <40>   DW_AT_encoding    : 7	(unsigned)
    <41>   DW_AT_name        : (indirect string, offset: 0x37f5): short unsigned int
 <1><45>: Abbrev Number: 2 (DW_TAG_base_type)
    <46>   DW_AT_byte_size   : 4
    <47>   DW_AT_encoding    : 5	(signed)
    <48>   DW_AT_name        : (indirect string, offset: 0x2974): long int
 <1><4c>: Abbrev Number: 3 (DW_TAG_typedef)
    <4d>   DW_AT_name        : (indirect string, offset: 0x3306): __uint32_t
    <51>   DW_AT_decl_file   : 2
    <52>   DW_AT_decl_line   : 79
    <53>   DW_AT_decl_column : 25
    <54>   DW_AT_type        : <0x58>
 <1><58>: Abbrev Number: 2 (DW_TAG_base_type)
    <59>   DW_AT_byte_size   : 4
    <5a>   DW_AT_encoding    : 7	(unsigned)
    <5b>   DW_AT_name        : (indirect string, offset: 0x3035): long unsigned int
 <1><5f>: Abbrev Number: 2 (DW_TAG_base_type)
    <60>   DW_AT_byte_size   : 8
    <61>   DW_AT_encoding    : 5	(signed)
    <62>   DW_AT_name        : (indirect string, offset: 0x1dbf): long long int
 <1><66>: Abbrev Number: 2 (DW_TAG_base_type)
    <67>   DW_AT_byte_size   : 8
    <68>   DW_AT_encoding    : 7	(unsigned)
    <69>   DW_AT_name        : (indirect string, offset: 0xf88): long long unsigned int
 <1><6d>: Abbrev Number: 4 (DW_TAG_base_type)
    <6e>   DW_AT_byte_size   : 4
    <6f>   DW_AT_encoding    : 5	(signed)
    <70>   DW_AT_name        : int
 <1><74>: Abbrev Number: 2 (DW_TAG_base_type)
    <75>   DW_AT_byte_size   : 4
    <76>   DW_AT_encoding    : 7	(unsigned)
    <77>   DW_AT_name        : (indirect string, offset: 0x482): unsigned int
 <1><7b>: Abbrev Number: 3 (DW_TAG_typedef)
    <7c>   DW_AT_name        : (indirect string, offset: 0xc34): uint32_t
    <80>   DW_AT_decl_file   : 3
    <81>   DW_AT_decl_line   : 48
    <82>   DW_AT_decl_column : 20
    <83>   DW_AT_type        : <0x4c>
 <1><87>: Abbrev Number: 5 (DW_TAG_subprogram)
    <88>   DW_AT_external    : 1
    <89>   DW_AT_name        : (indirect string, offset: 0x2f88): main
    <8d>   DW_AT_decl_file   : 1
    <8e>   DW_AT_decl_line   : 26
    <8f>   DW_AT_decl_column : 5
    <90>   DW_AT_type        : <0x6d>
    <94>   DW_AT_low_pc      : 0xfc
    <98>   DW_AT_high_pc     : 0x144
    <9c>   DW_AT_frame_base  : 0 (location list)
    <a0>   DW_AT_GNU_all_tail_call_sites: 1
    <a1>   DW_AT_sibling     : <0xde>
 <2><a5>: Abbrev Number: 6 (DW_TAG_variable)
    <a6>   DW_AT_name        : r0
    <a9>   DW_AT_decl_file   : 1
    <aa>   DW_AT_decl_line   : 28
    <ab>   DW_AT_decl_column : 9
    <ac>   DW_AT_type        : <0x6d>
 <2><b0>: Abbrev Number: 7 (DW_TAG_variable)
    <b1>   DW_AT_name        : (indirect string, offset: 0x37ac): f_ptr1
    <b5>   DW_AT_decl_file   : 1
    <b6>   DW_AT_decl_line   : 44
    <b7>   DW_AT_decl_column : 16
    <b8>   DW_AT_type        : <0xfb>
    <bc>   DW_AT_location    : 2 byte block: 91 74 	(DW_OP_fbreg: -12)
 <2><bf>: Abbrev Number: 7 (DW_TAG_variable)
    <c0>   DW_AT_name        : (indirect string, offset: 0x129f): f_ptr2
    <c4>   DW_AT_decl_file   : 1
    <c5>   DW_AT_decl_line   : 46
    <c6>   DW_AT_decl_column : 16
    <c7>   DW_AT_type        : <0xfb>
    <cb>   DW_AT_location    : 2 byte block: 91 70 	(DW_OP_fbreg: -16)
 <2><ce>: Abbrev Number: 7 (DW_TAG_variable)
    <cf>   DW_AT_name        : (indirect string, offset: 0x12a6): f_ptr3
    <d3>   DW_AT_decl_file   : 1
    <d4>   DW_AT_decl_line   : 47
    <d5>   DW_AT_decl_column : 16
    <d6>   DW_AT_type        : <0xfb>
    <da>   DW_AT_location    : 2 byte block: 91 6c 	(DW_OP_fbreg: -20)
 <2><dd>: Abbrev Number: 0
 <1><de>: Abbrev Number: 8 (DW_TAG_subroutine_type)
    <df>   DW_AT_prototyped  : 1
    <e0>   DW_AT_type        : <0x7b>
    <e4>   DW_AT_sibling     : <0xee>
 <2><e8>: Abbrev Number: 9 (DW_TAG_formal_parameter)
    <e9>   DW_AT_type        : <0xee>
 <2><ed>: Abbrev Number: 0
 <1><ee>: Abbrev Number: 10 (DW_TAG_pointer_type)
    <ef>   DW_AT_byte_size   : 4
    <f0>   DW_AT_type        : <0xf4>
 <1><f4>: Abbrev Number: 2 (DW_TAG_base_type)
    <f5>   DW_AT_byte_size   : 1
    <f6>   DW_AT_encoding    : 8	(unsigned char)
    <f7>   DW_AT_name        : (indirect string, offset: 0x197): char
 <1><fb>: Abbrev Number: 10 (DW_TAG_pointer_type)
    <fc>   DW_AT_byte_size   : 4
    <fd>   DW_AT_type        : <0xde>
 <1><101>: Abbrev Number: 11 (DW_TAG_subprogram)
    <102>   DW_AT_external    : 1
    <103>   DW_AT_name        : (indirect string, offset: 0x283e): print
    <107>   DW_AT_decl_file   : 1
    <108>   DW_AT_decl_line   : 10
    <109>   DW_AT_decl_column : 6
    <10a>   DW_AT_prototyped  : 1
    <10b>   DW_AT_low_pc      : 0x18
    <10f>   DW_AT_high_pc     : 0xfc
    <113>   DW_AT_frame_base  : 0x2c (location list)
    <117>   DW_AT_GNU_all_call_sites: 1
    <118>   DW_AT_sibling     : <0x15f>
 <2><11c>: Abbrev Number: 12 (DW_TAG_formal_parameter)
    <11d>   DW_AT_name        : str
    <121>   DW_AT_decl_file   : 1
    <122>   DW_AT_decl_line   : 10
    <123>   DW_AT_decl_column : 18
    <124>   DW_AT_type        : <0xee>
    <128>   DW_AT_location    : 2 byte block: 91 64 	(DW_OP_fbreg: -28)
 <2><12b>: Abbrev Number: 7 (DW_TAG_variable)
    <12c>   DW_AT_name        : (indirect string, offset: 0xe56): count
    <130>   DW_AT_decl_file   : 1
    <131>   DW_AT_decl_line   : 12
    <132>   DW_AT_decl_column : 9
    <133>   DW_AT_type        : <0x6d>
    <137>   DW_AT_location    : 2 byte block: 91 74 	(DW_OP_fbreg: -12)
 <2><13a>: Abbrev Number: 13 (DW_TAG_variable)
    <13b>   DW_AT_name        : i
    <13d>   DW_AT_decl_file   : 1
    <13e>   DW_AT_decl_line   : 13
    <13f>   DW_AT_decl_column : 9
    <140>   DW_AT_type        : <0x6d>
    <144>   DW_AT_location    : 2 byte block: 91 70 	(DW_OP_fbreg: -16)
 <2><147>: Abbrev Number: 14 (DW_TAG_lexical_block)
    <148>   DW_AT_low_pc      : 0xa4
    <14c>   DW_AT_high_pc     : 0xe8
 <3><150>: Abbrev Number: 13 (DW_TAG_variable)
    <151>   DW_AT_name        : j
    <153>   DW_AT_decl_file   : 1
    <154>   DW_AT_decl_line   : 21
    <155>   DW_AT_decl_column : 14
    <156>   DW_AT_type        : <0x6d>
    <15a>   DW_AT_location    : 2 byte block: 91 6c 	(DW_OP_fbreg: -20)
 <3><15d>: Abbrev Number: 0
 <2><15e>: Abbrev Number: 0
 <1><15f>: Abbrev Number: 15 (DW_TAG_subprogram)
    <160>   DW_AT_external    : 1
    <161>   DW_AT_name        : (indirect string, offset: 0x3842): HardFault_Handler
    <165>   DW_AT_decl_file   : 1
    <166>   DW_AT_decl_line   : 4
    <167>   DW_AT_decl_column : 6
    <168>   DW_AT_low_pc      : 0
    <16c>   DW_AT_high_pc     : 0x18
    <170>   DW_AT_frame_base  : 0x70 (location list)
    <174>   DW_AT_GNU_all_call_sites: 1
 <1><175>: Abbrev Number: 0

Contents of the .debug_abbrev section (loaded from temp/firmware_disassembly.txt.o):

  Number TAG (0)
   1      DW_TAG_compile_unit    [has children]
    DW_AT_producer     DW_FORM_strp
    DW_AT_language     DW_FORM_data1
    DW_AT_name         DW_FORM_strp
    DW_AT_comp_dir     DW_FORM_strp
    DW_AT_low_pc       DW_FORM_addr
    DW_AT_high_pc      DW_FORM_addr
    DW_AT_stmt_list    DW_FORM_data4
    DW_AT_GNU_macros   DW_FORM_data4
    DW_AT value: 0     DW_FORM value: 0
   2      DW_TAG_base_type    [no children]
    DW_AT_byte_size    DW_FORM_data1
    DW_AT_encoding     DW_FORM_data1
    DW_AT_name         DW_FORM_strp
    DW_AT value: 0     DW_FORM value: 0
   3      DW_TAG_typedef    [no children]
    DW_AT_name         DW_FORM_strp
    DW_AT_decl_file    DW_FORM_data1
    DW_AT_decl_line    DW_FORM_data1
    DW_AT_decl_column  DW_FORM_data1
    DW_AT_type         DW_FORM_ref4
    DW_AT value: 0     DW_FORM value: 0
   4      DW_TAG_base_type    [no children]
    DW_AT_byte_size    DW_FORM_data1
    DW_AT_encoding     DW_FORM_data1
    DW_AT_name         DW_FORM_string
    DW_AT value: 0     DW_FORM value: 0
   5      DW_TAG_subprogram    [has children]
    DW_AT_external     DW_FORM_flag
    DW_AT_name         DW_FORM_strp
    DW_AT_decl_file    DW_FORM_data1
    DW_AT_decl_line    DW_FORM_data1
    DW_AT_decl_column  DW_FORM_data1
    DW_AT_type         DW_FORM_ref4
    DW_AT_low_pc       DW_FORM_addr
    DW_AT_high_pc      DW_FORM_addr
    DW_AT_frame_base   DW_FORM_data4
    DW_AT_GNU_all_tail_call_sites DW_FORM_flag
    DW_AT_sibling      DW_FORM_ref4
    DW_AT value: 0     DW_FORM value: 0
   6      DW_TAG_variable    [no children]
    DW_AT_name         DW_FORM_string
    DW_AT_decl_file    DW_FORM_data1
    DW_AT_decl_line    DW_FORM_data1
    DW_AT_decl_column  DW_FORM_data1
    DW_AT_type         DW_FORM_ref4
    DW_AT value: 0     DW_FORM value: 0
   7      DW_TAG_variable    [no children]
    DW_AT_name         DW_FORM_strp
    DW_AT_decl_file    DW_FORM_data1
    DW_AT_decl_line    DW_FORM_data1
    DW_AT_decl_column  DW_FORM_data1
    DW_AT_type         DW_FORM_ref4
    DW_AT_location     DW_FORM_block1
    DW_AT value: 0     DW_FORM value: 0
   8      DW_TAG_subroutine_type    [has children]
    DW_AT_prototyped   DW_FORM_flag
    DW_AT_type         DW_FORM_ref4
    DW_AT_sibling      DW_FORM_ref4
    DW_AT value: 0     DW_FORM value: 0
   9      DW_TAG_formal_parameter    [no children]
    DW_AT_type         DW_FORM_ref4
    DW_AT value: 0     DW_FORM value: 0
   10      DW_TAG_pointer_type    [no children]
    DW_AT_byte_size    DW_FORM_data1
    DW_AT_type         DW_FORM_ref4
    DW_AT value: 0     DW_FORM value: 0
   11      DW_TAG_subprogram    [has children]
    DW_AT_external     DW_FORM_flag
    DW_AT_name         DW_FORM_strp
    DW_AT_decl_file    DW_FORM_data1
    DW_AT_decl_line    DW_FORM_data1
    DW_AT_decl_column  DW_FORM_data1
    DW_AT_prototyped   DW_FORM_flag
    DW_AT_low_pc       DW_FORM_addr
    DW_AT_high_pc      DW_FORM_addr
    DW_AT_frame_base   DW_FORM_data4
    DW_AT_GNU_all_call_sites DW_FORM_flag
    DW_AT_sibling      DW_FORM_ref4
    DW_AT value: 0     DW_FORM value: 0
   12      DW_TAG_formal_parameter    [no children]
    DW_AT_name         DW_FORM_string
    DW_AT_decl_file    DW_FORM_data1
    DW_AT_decl_line    DW_FORM_data1
    DW_AT_decl_column  DW_FORM_data1
    DW_AT_type         DW_FORM_ref4
    DW_AT_location     DW_FORM_block1
    DW_AT value: 0     DW_FORM value: 0
   13      DW_TAG_variable    [no children]
    DW_AT_name         DW_FORM_string
    DW_AT_decl_file    DW_FORM_data1
    DW_AT_decl_line    DW_FORM_data1
    DW_AT_decl_column  DW_FORM_data1
    DW_AT_type         DW_FORM_ref4
    DW_AT_location     DW_FORM_block1
    DW_AT value: 0     DW_FORM value: 0
   14      DW_TAG_lexical_block    [has children]
    DW_AT_low_pc       DW_FORM_addr
    DW_AT_high_pc      DW_FORM_addr
    DW_AT value: 0     DW_FORM value: 0
   15      DW_TAG_subprogram    [no children]
    DW_AT_external     DW_FORM_flag
    DW_AT_name         DW_FORM_strp
    DW_AT_decl_file    DW_FORM_data1
    DW_AT_decl_line    DW_FORM_data1
    DW_AT_decl_column  DW_FORM_data1
    DW_AT_low_pc       DW_FORM_addr
    DW_AT_high_pc      DW_FORM_addr
    DW_AT_frame_base   DW_FORM_data4
    DW_AT_GNU_all_call_sites DW_FORM_flag
    DW_AT value: 0     DW_FORM value: 0

Contents of the .debug_loc section (loaded from temp/firmware_disassembly.txt.o):

    Offset   Begin            End              Expression
    00000000 000000fc 00000100 (DW_OP_breg13 (r13): 0)
    0000000c 00000100 00000104 (DW_OP_breg13 (r13): 8)
    00000018 00000104 00000144 (DW_OP_breg11 (r11): 4)
    00000024 <End of list>
    0000002c 00000018 0000001c (DW_OP_breg13 (r13): 0)
    00000038 0000001c 00000020 (DW_OP_breg13 (r13): 4)
    00000044 00000020 000000f4 (DW_OP_breg11 (r11): 4)
    00000050 000000f4 000000f8 (DW_OP_breg13 (r13): 4)
    0000005c 000000f8 000000fc (DW_OP_breg13 (r13): 0)
    00000068 <End of list>
    00000070 00000000 00000004 (DW_OP_breg13 (r13): 0)
    0000007c 00000004 00000008 (DW_OP_breg13 (r13): 4)
    00000088 00000008 00000010 (DW_OP_breg11 (r11): 4)
    00000094 00000010 00000014 (DW_OP_breg13 (r13): 4)
    000000a0 00000014 00000018 (DW_OP_breg13 (r13): 0)
    000000ac <End of list>

Contents of the .debug_aranges section (loaded from temp/firmware_disassembly.txt.o):

  Length:                   28
  Version:                  2
  Offset into .debug_info:  0
  Pointer Size:             4
  Segment Size:             0

    Address    Length
    00000000 00000144
    00000000 00000000

Contents of the .debug_macro section (loaded from temp/firmware_disassembly.txt.o):

  Offset:                      0
  Version:                     4
  Offset size:                 4
  Offset into .debug_line:     0

 DW_MACRO_import - offset : 0
 DW_MACRO_start_file - lineno: 0 filenum: 1 filename: src/07_t_bit.c
 DW_MACRO_start_file - lineno: 1 filenum: 4 filename: /opt/arm-gnu-toolchain-13.3.rel1-x86_64-arm-none-eabi/lib/gcc/arm-none-eabi/13.3.1/include/stdint.h
 DW_MACRO_start_file - lineno: 9 filenum: 5 filename: /opt/arm-gnu-toolchain-13.3.rel1-x86_64-arm-none-eabi/arm-none-eabi/include/stdint.h
 DW_MACRO_define_strp - lineno : 10 macro : _STDINT_H 
 DW_MACRO_start_file - lineno: 12 filenum: 2 filename: /opt/arm-gnu-toolchain-13.3.rel1-x86_64-arm-none-eabi/arm-none-eabi/include/machine/_default_types.h
 DW_MACRO_define_strp - lineno : 6 macro : _MACHINE__DEFAULT_TYPES_H 
 DW_MACRO_start_file - lineno: 8 filenum: 6 filename: /opt/arm-gnu-toolchain-13.3.rel1-x86_64-arm-none-eabi/arm-none-eabi/include/sys/features.h
 DW_MACRO_define_strp - lineno : 22 macro : _SYS_FEATURES_H 
 DW_MACRO_start_file - lineno: 28 filenum: 7 filename: /opt/arm-gnu-toolchain-13.3.rel1-x86_64-arm-none-eabi/arm-none-eabi/include/_newlib_version.h
 DW_MACRO_import - offset : 0
 DW_MACRO_end_file
 DW_MACRO_import - offset : 0
 DW_MACRO_end_file
 DW_MACRO_import - offset : 0
 DW_MACRO_end_file
 DW_MACRO_start_file - lineno: 13 filenum: 8 filename: /opt/arm-gnu-toolchain-13.3.rel1-x86_64-arm-none-eabi/arm-none-eabi/include/sys/_intsup.h
 DW_MACRO_import - offset : 0
 DW_MACRO_end_file
 DW_MACRO_start_file - lineno: 14 filenum: 3 filename: /opt/arm-gnu-toolchain-13.3.rel1-x86_64-arm-none-eabi/arm-none-eabi/include/sys/_stdint.h
 DW_MACRO_import - offset : 0
 DW_MACRO_end_file
 DW_MACRO_import - offset : 0
 DW_MACRO_end_file
 DW_MACRO_define_strp - lineno : 13 macro : _GCC_WRAP_STDINT_H 
 DW_MACRO_end_file
 DW_MACRO_define_strp - lineno : 2 macro : SRAM_BASE 0x20000000
 DW_MACRO_define_strp - lineno : 3 macro : AT_ADDR(base,off) (*(uint32_t *)((base) + (off)))
 DW_MACRO_end_file

Contents of the .debug_macro section (loaded from temp/firmware_disassembly.txt.o):

  Offset:                      0
  Version:                     4
  Offset size:                 4

 DW_MACRO_define_strp - lineno : 0 macro : __STDC__ 1
 DW_MACRO_define_strp - lineno : 0 macro : __STDC_VERSION__ 201710L
 DW_MACRO_define_strp - lineno : 0 macro : __STDC_UTF_16__ 1
 DW_MACRO_define_strp - lineno : 0 macro : __STDC_UTF_32__ 1
 DW_MACRO_define_strp - lineno : 0 macro : __STDC_HOSTED__ 1
 DW_MACRO_define_strp - lineno : 0 macro : __GNUC__ 13
 DW_MACRO_define_strp - lineno : 0 macro : __GNUC_MINOR__ 3
 DW_MACRO_define_strp - lineno : 0 macro : __GNUC_PATCHLEVEL__ 1
 DW_MACRO_define_strp - lineno : 0 macro : __VERSION__ "13.3.1 20240614"
 DW_MACRO_define_strp - lineno : 0 macro : __ATOMIC_RELAXED 0
 DW_MACRO_define_strp - lineno : 0 macro : __ATOMIC_SEQ_CST 5
 DW_MACRO_define_strp - lineno : 0 macro : __ATOMIC_ACQUIRE 2
 DW_MACRO_define_strp - lineno : 0 macro : __ATOMIC_RELEASE 3
 DW_MACRO_define_strp - lineno : 0 macro : __ATOMIC_ACQ_REL 4
 DW_MACRO_define_strp - lineno : 0 macro : __ATOMIC_CONSUME 1
 DW_MACRO_define_strp - lineno : 0 macro : __FINITE_MATH_ONLY__ 0
 DW_MACRO_define_strp - lineno : 0 macro : __SIZEOF_INT__ 4
 DW_MACRO_define_strp - lineno : 0 macro : __SIZEOF_LONG__ 4
 DW_MACRO_define_strp - lineno : 0 macro : __SIZEOF_LONG_LONG__ 8
 DW_MACRO_define_strp - lineno : 0 macro : __SIZEOF_SHORT__ 2
 DW_MACRO_define_strp - lineno : 0 macro : __SIZEOF_FLOAT__ 4
 DW_MACRO_define_strp - lineno : 0 macro : __SIZEOF_DOUBLE__ 8
 DW_MACRO_define_strp - lineno : 0 macro : __SIZEOF_LONG_DOUBLE__ 8
 DW_MACRO_define_strp - lineno : 0 macro : __SIZEOF_SIZE_T__ 4
 DW_MACRO_define_strp - lineno : 0 macro : __CHAR_BIT__ 8
 DW_MACRO_define_strp - lineno : 0 macro : __BIGGEST_ALIGNMENT__ 8
 DW_MACRO_define_strp - lineno : 0 macro : __ORDER_LITTLE_ENDIAN__ 1234
 DW_MACRO_define_strp - lineno : 0 macro : __ORDER_BIG_ENDIAN__ 4321
 DW_MACRO_define_strp - lineno : 0 macro : __ORDER_PDP_ENDIAN__ 3412
 DW_MACRO_define_strp - lineno : 0 macro : __BYTE_ORDER__ __ORDER_LITTLE_ENDIAN__
 DW_MACRO_define_strp - lineno : 0 macro : __FLOAT_WORD_ORDER__ __ORDER_LITTLE_ENDIAN__
 DW_MACRO_define_strp - lineno : 0 macro : __SIZEOF_POINTER__ 4
 DW_MACRO_define_strp - lineno : 0 macro : __GNUC_EXECUTION_CHARSET_NAME "UTF-8"
 DW_MACRO_define_strp - lineno : 0 macro : __GNUC_WIDE_EXECUTION_CHARSET_NAME "UTF-32LE"
 DW_MACRO_define_strp - lineno : 0 macro : __SIZE_TYPE__ unsigned int
 DW_MACRO_define_strp - lineno : 0 macro : __PTRDIFF_TYPE__ int
 DW_MACRO_define_strp - lineno : 0 macro : __WCHAR_TYPE__ unsigned int
 DW_MACRO_define_strp - lineno : 0 macro : __WINT_TYPE__ unsigned int
 DW_MACRO_define_strp - lineno : 0 macro : __INTMAX_TYPE__ long long int
 DW_MACRO_define_strp - lineno : 0 macro : __UINTMAX_TYPE__ long long unsigned int
 DW_MACRO_define_strp - lineno : 0 macro : __CHAR16_TYPE__ short unsigned int
 DW_MACRO_define_strp - lineno : 0 macro : __CHAR32_TYPE__ long unsigned int
 DW_MACRO_define_strp - lineno : 0 macro : __SIG_ATOMIC_TYPE__ int
 DW_MACRO_define_strp - lineno : 0 macro : __INT8_TYPE__ signed char
 DW_MACRO_define_strp - lineno : 0 macro : __INT16_TYPE__ short int
 DW_MACRO_define_strp - lineno : 0 macro : __INT32_TYPE__ long int
 DW_MACRO_define_strp - lineno : 0 macro : __INT64_TYPE__ long long int
 DW_MACRO_define_strp - lineno : 0 macro : __UINT8_TYPE__ unsigned char
 DW_MACRO_define_strp - lineno : 0 macro : __UINT16_TYPE__ short unsigned int
 DW_MACRO_define_strp - lineno : 0 macro : __UINT32_TYPE__ long unsigned int
 DW_MACRO_define_strp - lineno : 0 macro : __UINT64_TYPE__ long long unsigned int
 DW_MACRO_define_strp - lineno : 0 macro : __INT_LEAST8_TYPE__ signed char
 DW_MACRO_define_strp - lineno : 0 macro : __INT_LEAST16_TYPE__ short int
 DW_MACRO_define_strp - lineno : 0 macro : __INT_LEAST32_TYPE__ long int
 DW_MACRO_define_strp - lineno : 0 macro : __INT_LEAST64_TYPE__ long long int
 DW_MACRO_define_strp - lineno : 0 macro : __UINT_LEAST8_TYPE__ unsigned char
 DW_MACRO_define_strp - lineno : 0 macro : __UINT_LEAST16_TYPE__ short unsigned int
 DW_MACRO_define_strp - lineno : 0 macro : __UINT_LEAST32_TYPE__ long unsigned int
 DW_MACRO_define_strp - lineno : 0 macro : __UINT_LEAST64_TYPE__ long long unsigned int
 DW_MACRO_define_strp - lineno : 0 macro : __INT_FAST8_TYPE__ int
 DW_MACRO_define_strp - lineno : 0 macro : __INT_FAST16_TYPE__ int
 DW_MACRO_define_strp - lineno : 0 macro : __INT_FAST32_TYPE__ int
 DW_MACRO_define_strp - lineno : 0 macro : __INT_FAST64_TYPE__ long long int
 DW_MACRO_define_strp - lineno : 0 macro : __UINT_FAST8_TYPE__ unsigned int
 DW_MACRO_define_strp - lineno : 0 macro : __UINT_FAST16_TYPE__ unsigned int
 DW_MACRO_define_strp - lineno : 0 macro : __UINT_FAST32_TYPE__ unsigned int
 DW_MACRO_define_strp - lineno : 0 macro : __UINT_FAST64_TYPE__ long long unsigned int
 DW_MACRO_define_strp - lineno : 0 macro : __INTPTR_TYPE__ int
 DW_MACRO_define_strp - lineno : 0 macro : __UINTPTR_TYPE__ unsigned int
 DW_MACRO_define_strp - lineno : 0 macro : __GXX_ABI_VERSION 1018
 DW_MACRO_define_strp - lineno : 0 macro : __SCHAR_MAX__ 0x7f
 DW_MACRO_define_strp - lineno : 0 macro : __SHRT_MAX__ 0x7fff
 DW_MACRO_define_strp - lineno : 0 macro : __INT_MAX__ 0x7fffffff
 DW_MACRO_define_strp - lineno : 0 macro : __LONG_MAX__ 0x7fffffffL
 DW_MACRO_define_strp - lineno : 0 macro : __LONG_LONG_MAX__ 0x7fffffffffffffffLL
 DW_MACRO_define_strp - lineno : 0 macro : __WCHAR_MAX__ 0xffffffffU
 DW_MACRO_define_strp - lineno : 0 macro : __WCHAR_MIN__ 0U
 DW_MACRO_define_strp - lineno : 0 macro : __WINT_MAX__ 0xffffffffU
 DW_MACRO_define_strp - lineno : 0 macro : __WINT_MIN__ 0U
 DW_MACRO_define_strp - lineno : 0 macro : __PTRDIFF_MAX__ 0x7fffffff
 DW_MACRO_define_strp - lineno : 0 macro : __SIZE_MAX__ 0xffffffffU
 DW_MACRO_define_strp - lineno : 0 macro : __SCHAR_WIDTH__ 8
 DW_MACRO_define_strp - lineno : 0 macro : __SHRT_WIDTH__ 16
 DW_MACRO_define_strp - lineno : 0 macro : __INT_WIDTH__ 32
 DW_MACRO_define_strp - lineno : 0 macro : __LONG_WIDTH__ 32
 DW_MACRO_define_strp - lineno : 0 macro : __LONG_LONG_WIDTH__ 64
 DW_MACRO_define_strp - lineno : 0 macro : __WCHAR_WIDTH__ 32
 DW_MACRO_define_strp - lineno : 0 macro : __WINT_WIDTH__ 32
 DW_MACRO_define_strp - lineno : 0 macro : __PTRDIFF_WIDTH__ 32
 DW_MACRO_define_strp - lineno : 0 macro : __SIZE_WIDTH__ 32
 DW_MACRO_define_strp - lineno : 0 macro : __INTMAX_MAX__ 0x7fffffffffffffffLL
 DW_MACRO_define_strp - lineno : 0 macro : __INTMAX_C(c) c ## LL
 DW_MACRO_define_strp - lineno : 0 macro : __UINTMAX_MAX__ 0xffffffffffffffffULL
 DW_MACRO_define_strp - lineno : 0 macro : __UINTMAX_C(c) c ## ULL
 DW_MACRO_define_strp - lineno : 0 macro : __INTMAX_WIDTH__ 64
 DW_MACRO_define_strp - lineno : 0 macro : __SIG_ATOMIC_MAX__ 0x7fffffff
 DW_MACRO_define_strp - lineno : 0 macro : __SIG_ATOMIC_MIN__ (-__SIG_ATOMIC_MAX__ - 1)
 DW_MACRO_define_strp - lineno : 0 macro : __SIG_ATOMIC_WIDTH__ 32
 DW_MACRO_define_strp - lineno : 0 macro : __INT8_MAX__ 0x7f
 DW_MACRO_define_strp - lineno : 0 macro : __INT16_MAX__ 0x7fff
 DW_MACRO_define_strp - lineno : 0 macro : __INT32_MAX__ 0x7fffffffL
 DW_MACRO_define_strp - lineno : 0 macro : __INT64_MAX__ 0x7fffffffffffffffLL
 DW_MACRO_define_strp - lineno : 0 macro : __UINT8_MAX__ 0xff
 DW_MACRO_define_strp - lineno : 0 macro : __UINT16_MAX__ 0xffff
 DW_MACRO_define_strp - lineno : 0 macro : __UINT32_MAX__ 0xffffffffUL
 DW_MACRO_define_strp - lineno : 0 macro : __UINT64_MAX__ 0xffffffffffffffffULL
 DW_MACRO_define_strp - lineno : 0 macro : __INT_LEAST8_MAX__ 0x7f
 DW_MACRO_define_strp - lineno : 0 macro : __INT8_C(c) c
 DW_MACRO_define_strp - lineno : 0 macro : __INT_LEAST8_WIDTH__ 8
 DW_MACRO_define_strp - lineno : 0 macro : __INT_LEAST16_MAX__ 0x7fff
 DW_MACRO_define_strp - lineno : 0 macro : __INT16_C(c) c
 DW_MACRO_define_strp - lineno : 0 macro : __INT_LEAST16_WIDTH__ 16
 DW_MACRO_define_strp - lineno : 0 macro : __INT_LEAST32_MAX__ 0x7fffffffL
 DW_MACRO_define_strp - lineno : 0 macro : __INT32_C(c) c ## L
 DW_MACRO_define_strp - lineno : 0 macro : __INT_LEAST32_WIDTH__ 32
 DW_MACRO_define_strp - lineno : 0 macro : __INT_LEAST64_MAX__ 0x7fffffffffffffffLL
 DW_MACRO_define_strp - lineno : 0 macro : __INT64_C(c) c ## LL
 DW_MACRO_define_strp - lineno : 0 macro : __INT_LEAST64_WIDTH__ 64
 DW_MACRO_define_strp - lineno : 0 macro : __UINT_LEAST8_MAX__ 0xff
 DW_MACRO_define_strp - lineno : 0 macro : __UINT8_C(c) c
 DW_MACRO_define_strp - lineno : 0 macro : __UINT_LEAST16_MAX__ 0xffff
 DW_MACRO_define_strp - lineno : 0 macro : __UINT16_C(c) c
 DW_MACRO_define_strp - lineno : 0 macro : __UINT_LEAST32_MAX__ 0xffffffffUL
 DW_MACRO_define_strp - lineno : 0 macro : __UINT32_C(c) c ## UL
 DW_MACRO_define_strp - lineno : 0 macro : __UINT_LEAST64_MAX__ 0xffffffffffffffffULL
 DW_MACRO_define_strp - lineno : 0 macro : __UINT64_C(c) c ## ULL
 DW_MACRO_define_strp - lineno : 0 macro : __INT_FAST8_MAX__ 0x7fffffff
 DW_MACRO_define_strp - lineno : 0 macro : __INT_FAST8_WIDTH__ 32
 DW_MACRO_define_strp - lineno : 0 macro : __INT_FAST16_MAX__ 0x7fffffff
 DW_MACRO_define_strp - lineno : 0 macro : __INT_FAST16_WIDTH__ 32
 DW_MACRO_define_strp - lineno : 0 macro : __INT_FAST32_MAX__ 0x7fffffff
 DW_MACRO_define_strp - lineno : 0 macro : __INT_FAST32_WIDTH__ 32
 DW_MACRO_define_strp - lineno : 0 macro : __INT_FAST64_MAX__ 0x7fffffffffffffffLL
 DW_MACRO_define_strp - lineno : 0 macro : __INT_FAST64_WIDTH__ 64
 DW_MACRO_define_strp - lineno : 0 macro : __UINT_FAST8_MAX__ 0xffffffffU
 DW_MACRO_define_strp - lineno : 0 macro : __UINT_FAST16_MAX__ 0xffffffffU
 DW_MACRO_define_strp - lineno : 0 macro : __UINT_FAST32_MAX__ 0xffffffffU
 DW_MACRO_define_strp - lineno : 0 macro : __UINT_FAST64_MAX__ 0xffffffffffffffffULL
 DW_MACRO_define_strp - lineno : 0 macro : __INTPTR_MAX__ 0x7fffffff
 DW_MACRO_define_strp - lineno : 0 macro : __INTPTR_WIDTH__ 32
 DW_MACRO_define_strp - lineno : 0 macro : __UINTPTR_MAX__ 0xffffffffU
 DW_MACRO_define_strp - lineno : 0 macro : __GCC_IEC_559 0
 DW_MACRO_define_strp - lineno : 0 macro : __GCC_IEC_559_COMPLEX 0
 DW_MACRO_define_strp - lineno : 0 macro : __FLT_EVAL_METHOD__ 0
 DW_MACRO_define_strp - lineno : 0 macro : __FLT_EVAL_METHOD_TS_18661_3__ 0
 DW_MACRO_define_strp - lineno : 0 macro : __DEC_EVAL_METHOD__ 2
 DW_MACRO_define_strp - lineno : 0 macro : __FLT_RADIX__ 2
 DW_MACRO_define_strp - lineno : 0 macro : __FLT_MANT_DIG__ 24
 DW_MACRO_define_strp - lineno : 0 macro : __FLT_DIG__ 6
 DW_MACRO_define_strp - lineno : 0 macro : __FLT_MIN_EXP__ (-125)
 DW_MACRO_define_strp - lineno : 0 macro : __FLT_MIN_10_EXP__ (-37)
 DW_MACRO_define_strp - lineno : 0 macro : __FLT_MAX_EXP__ 128
 DW_MACRO_define_strp - lineno : 0 macro : __FLT_MAX_10_EXP__ 38
 DW_MACRO_define_strp - lineno : 0 macro : __FLT_DECIMAL_DIG__ 9
 DW_MACRO_define_strp - lineno : 0 macro : __FLT_MAX__ 3.4028234663852886e+38F
 DW_MACRO_define_strp - lineno : 0 macro : __FLT_NORM_MAX__ 3.4028234663852886e+38F
 DW_MACRO_define_strp - lineno : 0 macro : __FLT_MIN__ 1.1754943508222875e-38F
 DW_MACRO_define_strp - lineno : 0 macro : __FLT_EPSILON__ 1.1920928955078125e-7F
 DW_MACRO_define_strp - lineno : 0 macro : __FLT_DENORM_MIN__ 1.4012984643248171e-45F
 DW_MACRO_define_strp - lineno : 0 macro : __FLT_HAS_DENORM__ 1
 DW_MACRO_define_strp - lineno : 0 macro : __FLT_HAS_INFINITY__ 1
 DW_MACRO_define_strp - lineno : 0 macro : __FLT_HAS_QUIET_NAN__ 1
 DW_MACRO_define_strp - lineno : 0 macro : __FLT_IS_IEC_60559__ 1
 DW_MACRO_define_strp - lineno : 0 macro : __DBL_MANT_DIG__ 53
 DW_MACRO_define_strp - lineno : 0 macro : __DBL_DIG__ 15
 DW_MACRO_define_strp - lineno : 0 macro : __DBL_MIN_EXP__ (-1021)
 DW_MACRO_define_strp - lineno : 0 macro : __DBL_MIN_10_EXP__ (-307)
 DW_MACRO_define_strp - lineno : 0 macro : __DBL_MAX_EXP__ 1024
 DW_MACRO_define_strp - lineno : 0 macro : __DBL_MAX_10_EXP__ 308
 DW_MACRO_define_strp - lineno : 0 macro : __DBL_DECIMAL_DIG__ 17
 DW_MACRO_define_strp - lineno : 0 macro : __DBL_MAX__ ((double)1.7976931348623157e+308L)
 DW_MACRO_define_strp - lineno : 0 macro : __DBL_NORM_MAX__ ((double)1.7976931348623157e+308L)
 DW_MACRO_define_strp - lineno : 0 macro : __DBL_MIN__ ((double)2.2250738585072014e-308L)
 DW_MACRO_define_strp - lineno : 0 macro : __DBL_EPSILON__ ((double)2.2204460492503131e-16L)
 DW_MACRO_define_strp - lineno : 0 macro : __DBL_DENORM_MIN__ ((double)4.9406564584124654e-324L)
 DW_MACRO_define_strp - lineno : 0 macro : __DBL_HAS_DENORM__ 1
 DW_MACRO_define_strp - lineno : 0 macro : __DBL_HAS_INFINITY__ 1
 DW_MACRO_define_strp - lineno : 0 macro : __DBL_HAS_QUIET_NAN__ 1
 DW_MACRO_define_strp - lineno : 0 macro : __DBL_IS_IEC_60559__ 1
 DW_MACRO_define_strp - lineno : 0 macro : __LDBL_MANT_DIG__ 53
 DW_MACRO_define_strp - lineno : 0 macro : __LDBL_DIG__ 15
 DW_MACRO_define_strp - lineno : 0 macro : __LDBL_MIN_EXP__ (-1021)
 DW_MACRO_define_strp - lineno : 0 macro : __LDBL_MIN_10_EXP__ (-307)
 DW_MACRO_define_strp - lineno : 0 macro : __LDBL_MAX_EXP__ 1024
 DW_MACRO_define_strp - lineno : 0 macro : __LDBL_MAX_10_EXP__ 308
 DW_MACRO_define_strp - lineno : 0 macro : __DECIMAL_DIG__ 17
 DW_MACRO_define_strp - lineno : 0 macro : __LDBL_DECIMAL_DIG__ 17
 DW_MACRO_define_strp - lineno : 0 macro : __LDBL_MAX__ 1.7976931348623157e+308L
 DW_MACRO_define_strp - lineno : 0 macro : __LDBL_NORM_MAX__ 1.7976931348623157e+308L
 DW_MACRO_define_strp - lineno : 0 macro : __LDBL_MIN__ 2.2250738585072014e-308L
 DW_MACRO_define_strp - lineno : 0 macro : __LDBL_EPSILON__ 2.2204460492503131e-16L
 DW_MACRO_define_strp - lineno : 0 macro : __LDBL_DENORM_MIN__ 4.9406564584124654e-324L
 DW_MACRO_define_strp - lineno : 0 macro : __LDBL_HAS_DENORM__ 1
 DW_MACRO_define_strp - lineno : 0 macro : __LDBL_HAS_INFINITY__ 1
 DW_MACRO_define_strp - lineno : 0 macro : __LDBL_HAS_QUIET_NAN__ 1
 DW_MACRO_define_strp - lineno : 0 macro : __LDBL_IS_IEC_60559__ 1
 DW_MACRO_define_strp - lineno : 0 macro : __FLT32_MANT_DIG__ 24
 DW_MACRO_define_strp - lineno : 0 macro : __FLT32_DIG__ 6
 DW_MACRO_define_strp - lineno : 0 macro : __FLT32_MIN_EXP__ (-125)
 DW_MACRO_define_strp - lineno : 0 macro : __FLT32_MIN_10_EXP__ (-37)
 DW_MACRO_define_strp - lineno : 0 macro : __FLT32_MAX_EXP__ 128
 DW_MACRO_define_strp - lineno : 0 macro : __FLT32_MAX_10_EXP__ 38
 DW_MACRO_define_strp - lineno : 0 macro : __FLT32_DECIMAL_DIG__ 9
 DW_MACRO_define_strp - lineno : 0 macro : __FLT32_MAX__ 3.4028234663852886e+38F32
 DW_MACRO_define_strp - lineno : 0 macro : __FLT32_NORM_MAX__ 3.4028234663852886e+38F32
 DW_MACRO_define_strp - lineno : 0 macro : __FLT32_MIN__ 1.1754943508222875e-38F32
 DW_MACRO_define_strp - lineno : 0 macro : __FLT32_EPSILON__ 1.1920928955078125e-7F32
 DW_MACRO_define_strp - lineno : 0 macro : __FLT32_DENORM_MIN__ 1.4012984643248171e-45F32
 DW_MACRO_define_strp - lineno : 0 macro : __FLT32_HAS_DENORM__ 1
 DW_MACRO_define_strp - lineno : 0 macro : __FLT32_HAS_INFINITY__ 1
 DW_MACRO_define_strp - lineno : 0 macro : __FLT32_HAS_QUIET_NAN__ 1
 DW_MACRO_define_strp - lineno : 0 macro : __FLT32_IS_IEC_60559__ 1
 DW_MACRO_define_strp - lineno : 0 macro : __FLT64_MANT_DIG__ 53
 DW_MACRO_define_strp - lineno : 0 macro : __FLT64_DIG__ 15
 DW_MACRO_define_strp - lineno : 0 macro : __FLT64_MIN_EXP__ (-1021)
 DW_MACRO_define_strp - lineno : 0 macro : __FLT64_MIN_10_EXP__ (-307)
 DW_MACRO_define_strp - lineno : 0 macro : __FLT64_MAX_EXP__ 1024
 DW_MACRO_define_strp - lineno : 0 macro : __FLT64_MAX_10_EXP__ 308
 DW_MACRO_define_strp - lineno : 0 macro : __FLT64_DECIMAL_DIG__ 17
 DW_MACRO_define_strp - lineno : 0 macro : __FLT64_MAX__ 1.7976931348623157e+308F64
 DW_MACRO_define_strp - lineno : 0 macro : __FLT64_NORM_MAX__ 1.7976931348623157e+308F64
 DW_MACRO_define_strp - lineno : 0 macro : __FLT64_MIN__ 2.2250738585072014e-308F64
 DW_MACRO_define_strp - lineno : 0 macro : __FLT64_EPSILON__ 2.2204460492503131e-16F64
 DW_MACRO_define_strp - lineno : 0 macro : __FLT64_DENORM_MIN__ 4.9406564584124654e-324F64
 DW_MACRO_define_strp - lineno : 0 macro : __FLT64_HAS_DENORM__ 1
 DW_MACRO_define_strp - lineno : 0 macro : __FLT64_HAS_INFINITY__ 1
 DW_MACRO_define_strp - lineno : 0 macro : __FLT64_HAS_QUIET_NAN__ 1
 DW_MACRO_define_strp - lineno : 0 macro : __FLT64_IS_IEC_60559__ 1
 DW_MACRO_define_strp - lineno : 0 macro : __FLT32X_MANT_DIG__ 53
 DW_MACRO_define_strp - lineno : 0 macro : __FLT32X_DIG__ 15
 DW_MACRO_define_strp - lineno : 0 macro : __FLT32X_MIN_EXP__ (-1021)
 DW_MACRO_define_strp - lineno : 0 macro : __FLT32X_MIN_10_EXP__ (-307)
 DW_MACRO_define_strp - lineno : 0 macro : __FLT32X_MAX_EXP__ 1024
 DW_MACRO_define_strp - lineno : 0 macro : __FLT32X_MAX_10_EXP__ 308
 DW_MACRO_define_strp - lineno : 0 macro : __FLT32X_DECIMAL_DIG__ 17
 DW_MACRO_define_strp - lineno : 0 macro : __FLT32X_MAX__ 1.7976931348623157e+308F32x
 DW_MACRO_define_strp - lineno : 0 macro : __FLT32X_NORM_MAX__ 1.7976931348623157e+308F32x
 DW_MACRO_define_strp - lineno : 0 macro : __FLT32X_MIN__ 2.2250738585072014e-308F32x
 DW_MACRO_define_strp - lineno : 0 macro : __FLT32X_EPSILON__ 2.2204460492503131e-16F32x
 DW_MACRO_define_strp - lineno : 0 macro : __FLT32X_DENORM_MIN__ 4.9406564584124654e-324F32x
 DW_MACRO_define_strp - lineno : 0 macro : __FLT32X_HAS_DENORM__ 1
 DW_MACRO_define_strp - lineno : 0 macro : __FLT32X_HAS_INFINITY__ 1
 DW_MACRO_define_strp - lineno : 0 macro : __FLT32X_HAS_QUIET_NAN__ 1
 DW_MACRO_define_strp - lineno : 0 macro : __FLT32X_IS_IEC_60559__ 1
 DW_MACRO_define_strp - lineno : 0 macro : __SFRACT_FBIT__ 7
 DW_MACRO_define_strp - lineno : 0 macro : __SFRACT_IBIT__ 0
 DW_MACRO_define_strp - lineno : 0 macro : __SFRACT_MIN__ (-0.5HR-0.5HR)
 DW_MACRO_define_strp - lineno : 0 macro : __SFRACT_MAX__ 0X7FP-7HR
 DW_MACRO_define_strp - lineno : 0 macro : __SFRACT_EPSILON__ 0x1P-7HR
 DW_MACRO_define_strp - lineno : 0 macro : __USFRACT_FBIT__ 8
 DW_MACRO_define_strp - lineno : 0 macro : __USFRACT_IBIT__ 0
 DW_MACRO_define_strp - lineno : 0 macro : __USFRACT_MIN__ 0.0UHR
 DW_MACRO_define_strp - lineno : 0 macro : __USFRACT_MAX__ 0XFFP-8UHR
 DW_MACRO_define_strp - lineno : 0 macro : __USFRACT_EPSILON__ 0x1P-8UHR
 DW_MACRO_define_strp - lineno : 0 macro : __FRACT_FBIT__ 15
 DW_MACRO_define_strp - lineno : 0 macro : __FRACT_IBIT__ 0
 DW_MACRO_define_strp - lineno : 0 macro : __FRACT_MIN__ (-0.5R-0.5R)
 DW_MACRO_define_strp - lineno : 0 macro : __FRACT_MAX__ 0X7FFFP-15R
 DW_MACRO_define_strp - lineno : 0 macro : __FRACT_EPSILON__ 0x1P-15R
 DW_MACRO_define_strp - lineno : 0 macro : __UFRACT_FBIT__ 16
 DW_MACRO_define_strp - lineno : 0 macro : __UFRACT_IBIT__ 0
 DW_MACRO_define_strp - lineno : 0 macro : __UFRACT_MIN__ 0.0UR
 DW_MACRO_define_strp - lineno : 0 macro : __UFRACT_MAX__ 0XFFFFP-16UR
 DW_MACRO_define_strp - lineno : 0 macro : __UFRACT_EPSILON__ 0x1P-16UR
 DW_MACRO_define_strp - lineno : 0 macro : __LFRACT_FBIT__ 31
 DW_MACRO_define_strp - lineno : 0 macro : __LFRACT_IBIT__ 0
 DW_MACRO_define_strp - lineno : 0 macro : __LFRACT_MIN__ (-0.5LR-0.5LR)
 DW_MACRO_define_strp - lineno : 0 macro : __LFRACT_MAX__ 0X7FFFFFFFP-31LR
 DW_MACRO_define_strp - lineno : 0 macro : __LFRACT_EPSILON__ 0x1P-31LR
 DW_MACRO_define_strp - lineno : 0 macro : __ULFRACT_FBIT__ 32
 DW_MACRO_define_strp - lineno : 0 macro : __ULFRACT_IBIT__ 0
 DW_MACRO_define_strp - lineno : 0 macro : __ULFRACT_MIN__ 0.0ULR
 DW_MACRO_define_strp - lineno : 0 macro : __ULFRACT_MAX__ 0XFFFFFFFFP-32ULR
 DW_MACRO_define_strp - lineno : 0 macro : __ULFRACT_EPSILON__ 0x1P-32ULR
 DW_MACRO_define_strp - lineno : 0 macro : __LLFRACT_FBIT__ 63
 DW_MACRO_define_strp - lineno : 0 macro : __LLFRACT_IBIT__ 0
 DW_MACRO_define_strp - lineno : 0 macro : __LLFRACT_MIN__ (-0.5LLR-0.5LLR)
 DW_MACRO_define_strp - lineno : 0 macro : __LLFRACT_MAX__ 0X7FFFFFFFFFFFFFFFP-63LLR
 DW_MACRO_define_strp - lineno : 0 macro : __LLFRACT_EPSILON__ 0x1P-63LLR
 DW_MACRO_define_strp - lineno : 0 macro : __ULLFRACT_FBIT__ 64
 DW_MACRO_define_strp - lineno : 0 macro : __ULLFRACT_IBIT__ 0
 DW_MACRO_define_strp - lineno : 0 macro : __ULLFRACT_MIN__ 0.0ULLR
 DW_MACRO_define_strp - lineno : 0 macro : __ULLFRACT_MAX__ 0XFFFFFFFFFFFFFFFFP-64ULLR
 DW_MACRO_define_strp - lineno : 0 macro : __ULLFRACT_EPSILON__ 0x1P-64ULLR
 DW_MACRO_define_strp - lineno : 0 macro : __SACCUM_FBIT__ 7
 DW_MACRO_define_strp - lineno : 0 macro : __SACCUM_IBIT__ 8
 DW_MACRO_define_strp - lineno : 0 macro : __SACCUM_MIN__ (-0X1P7HK-0X1P7HK)
 DW_MACRO_define_strp - lineno : 0 macro : __SACCUM_MAX__ 0X7FFFP-7HK
 DW_MACRO_define_strp - lineno : 0 macro : __SACCUM_EPSILON__ 0x1P-7HK
 DW_MACRO_define_strp - lineno : 0 macro : __USACCUM_FBIT__ 8
 DW_MACRO_define_strp - lineno : 0 macro : __USACCUM_IBIT__ 8
 DW_MACRO_define_strp - lineno : 0 macro : __USACCUM_MIN__ 0.0UHK
 DW_MACRO_define_strp - lineno : 0 macro : __USACCUM_MAX__ 0XFFFFP-8UHK
 DW_MACRO_define_strp - lineno : 0 macro : __USACCUM_EPSILON__ 0x1P-8UHK
 DW_MACRO_define_strp - lineno : 0 macro : __ACCUM_FBIT__ 15
 DW_MACRO_define_strp - lineno : 0 macro : __ACCUM_IBIT__ 16
 DW_MACRO_define_strp - lineno : 0 macro : __ACCUM_MIN__ (-0X1P15K-0X1P15K)
 DW_MACRO_define_strp - lineno : 0 macro : __ACCUM_MAX__ 0X7FFFFFFFP-15K
 DW_MACRO_define_strp - lineno : 0 macro : __ACCUM_EPSILON__ 0x1P-15K
 DW_MACRO_define_strp - lineno : 0 macro : __UACCUM_FBIT__ 16
 DW_MACRO_define_strp - lineno : 0 macro : __UACCUM_IBIT__ 16
 DW_MACRO_define_strp - lineno : 0 macro : __UACCUM_MIN__ 0.0UK
 DW_MACRO_define_strp - lineno : 0 macro : __UACCUM_MAX__ 0XFFFFFFFFP-16UK
 DW_MACRO_define_strp - lineno : 0 macro : __UACCUM_EPSILON__ 0x1P-16UK
 DW_MACRO_define_strp - lineno : 0 macro : __LACCUM_FBIT__ 31
 DW_MACRO_define_strp - lineno : 0 macro : __LACCUM_IBIT__ 32
 DW_MACRO_define_strp - lineno : 0 macro : __LACCUM_MIN__ (-0X1P31LK-0X1P31LK)
 DW_MACRO_define_strp - lineno : 0 macro : __LACCUM_MAX__ 0X7FFFFFFFFFFFFFFFP-31LK
 DW_MACRO_define_strp - lineno : 0 macro : __LACCUM_EPSILON__ 0x1P-31LK
 DW_MACRO_define_strp - lineno : 0 macro : __ULACCUM_FBIT__ 32
 DW_MACRO_define_strp - lineno : 0 macro : __ULACCUM_IBIT__ 32
 DW_MACRO_define_strp - lineno : 0 macro : __ULACCUM_MIN__ 0.0ULK
 DW_MACRO_define_strp - lineno : 0 macro : __ULACCUM_MAX__ 0XFFFFFFFFFFFFFFFFP-32ULK
 DW_MACRO_define_strp - lineno : 0 macro : __ULACCUM_EPSILON__ 0x1P-32ULK
 DW_MACRO_define_strp - lineno : 0 macro : __LLACCUM_FBIT__ 31
 DW_MACRO_define_strp - lineno : 0 macro : __LLACCUM_IBIT__ 32
 DW_MACRO_define_strp - lineno : 0 macro : __LLACCUM_MIN__ (-0X1P31LLK-0X1P31LLK)
 DW_MACRO_define_strp - lineno : 0 macro : __LLACCUM_MAX__ 0X7FFFFFFFFFFFFFFFP-31LLK
 DW_MACRO_define_strp - lineno : 0 macro : __LLACCUM_EPSILON__ 0x1P-31LLK
 DW_MACRO_define_strp - lineno : 0 macro : __ULLACCUM_FBIT__ 32
 DW_MACRO_define_strp - lineno : 0 macro : __ULLACCUM_IBIT__ 32
 DW_MACRO_define_strp - lineno : 0 macro : __ULLACCUM_MIN__ 0.0ULLK
 DW_MACRO_define_strp - lineno : 0 macro : __ULLACCUM_MAX__ 0XFFFFFFFFFFFFFFFFP-32ULLK
 DW_MACRO_define_strp - lineno : 0 macro : __ULLACCUM_EPSILON__ 0x1P-32ULLK
 DW_MACRO_define_strp - lineno : 0 macro : __QQ_FBIT__ 7
 DW_MACRO_define_strp - lineno : 0 macro : __QQ_IBIT__ 0
 DW_MACRO_define_strp - lineno : 0 macro : __HQ_FBIT__ 15
 DW_MACRO_define_strp - lineno : 0 macro : __HQ_IBIT__ 0
 DW_MACRO_define_strp - lineno : 0 macro : __SQ_FBIT__ 31
 DW_MACRO_define_strp - lineno : 0 macro : __SQ_IBIT__ 0
 DW_MACRO_define_strp - lineno : 0 macro : __DQ_FBIT__ 63
 DW_MACRO_define_strp - lineno : 0 macro : __DQ_IBIT__ 0
 DW_MACRO_define_strp - lineno : 0 macro : __TQ_FBIT__ 127
 DW_MACRO_define_strp - lineno : 0 macro : __TQ_IBIT__ 0
 DW_MACRO_define_strp - lineno : 0 macro : __UQQ_FBIT__ 8
 DW_MACRO_define_strp - lineno : 0 macro : __UQQ_IBIT__ 0
 DW_MACRO_define_strp - lineno : 0 macro : __UHQ_FBIT__ 16
 DW_MACRO_define_strp - lineno : 0 macro : __UHQ_IBIT__ 0
 DW_MACRO_define_strp - lineno : 0 macro : __USQ_FBIT__ 32
 DW_MACRO_define_strp - lineno : 0 macro : __USQ_IBIT__ 0
 DW_MACRO_define_strp - lineno : 0 macro : __UDQ_FBIT__ 64
 DW_MACRO_define_strp - lineno : 0 macro : __UDQ_IBIT__ 0
 DW_MACRO_define_strp - lineno : 0 macro : __UTQ_FBIT__ 128
 DW_MACRO_define_strp - lineno : 0 macro : __UTQ_IBIT__ 0
 DW_MACRO_define_strp - lineno : 0 macro : __HA_FBIT__ 7
 DW_MACRO_define_strp - lineno : 0 macro : __HA_IBIT__ 8
 DW_MACRO_define_strp - lineno : 0 macro : __SA_FBIT__ 15
 DW_MACRO_define_strp - lineno : 0 macro : __SA_IBIT__ 16
 DW_MACRO_define_strp - lineno : 0 macro : __DA_FBIT__ 31
 DW_MACRO_define_strp - lineno : 0 macro : __DA_IBIT__ 32
 DW_MACRO_define_strp - lineno : 0 macro : __TA_FBIT__ 63
 DW_MACRO_define_strp - lineno : 0 macro : __TA_IBIT__ 64
 DW_MACRO_define_strp - lineno : 0 macro : __UHA_FBIT__ 8
 DW_MACRO_define_strp - lineno : 0 macro : __UHA_IBIT__ 8
 DW_MACRO_define_strp - lineno : 0 macro : __USA_FBIT__ 16
 DW_MACRO_define_strp - lineno : 0 macro : __USA_IBIT__ 16
 DW_MACRO_define_strp - lineno : 0 macro : __UDA_FBIT__ 32
 DW_MACRO_define_strp - lineno : 0 macro : __UDA_IBIT__ 32
 DW_MACRO_define_strp - lineno : 0 macro : __UTA_FBIT__ 64
 DW_MACRO_define_strp - lineno : 0 macro : __UTA_IBIT__ 64
 DW_MACRO_define_strp - lineno : 0 macro : __REGISTER_PREFIX__ 
 DW_MACRO_define_strp - lineno : 0 macro : __USER_LABEL_PREFIX__ 
 DW_MACRO_define_strp - lineno : 0 macro : __GNUC_STDC_INLINE__ 1
 DW_MACRO_define_strp - lineno : 0 macro : __NO_INLINE__ 1
 DW_MACRO_define_strp - lineno : 0 macro : __CHAR_UNSIGNED__ 1
 DW_MACRO_define_strp - lineno : 0 macro : __GCC_ATOMIC_BOOL_LOCK_FREE 1
 DW_MACRO_define_strp - lineno : 0 macro : __GCC_ATOMIC_CHAR_LOCK_FREE 1
 DW_MACRO_define_strp - lineno : 0 macro : __GCC_ATOMIC_CHAR16_T_LOCK_FREE 1
 DW_MACRO_define_strp - lineno : 0 macro : __GCC_ATOMIC_CHAR32_T_LOCK_FREE 1
 DW_MACRO_define_strp - lineno : 0 macro : __GCC_ATOMIC_WCHAR_T_LOCK_FREE 1
 DW_MACRO_define_strp - lineno : 0 macro : __GCC_ATOMIC_SHORT_LOCK_FREE 1
 DW_MACRO_define_strp - lineno : 0 macro : __GCC_ATOMIC_INT_LOCK_FREE 1
 DW_MACRO_define_strp - lineno : 0 macro : __GCC_ATOMIC_LONG_LOCK_FREE 1
 DW_MACRO_define_strp - lineno : 0 macro : __GCC_ATOMIC_LLONG_LOCK_FREE 1
 DW_MACRO_define_strp - lineno : 0 macro : __GCC_ATOMIC_TEST_AND_SET_TRUEVAL 1
 DW_MACRO_define_strp - lineno : 0 macro : __GCC_DESTRUCTIVE_SIZE 64
 DW_MACRO_define_strp - lineno : 0 macro : __GCC_CONSTRUCTIVE_SIZE 64
 DW_MACRO_define_strp - lineno : 0 macro : __GCC_ATOMIC_POINTER_LOCK_FREE 1
 DW_MACRO_define_strp - lineno : 0 macro : __HAVE_SPECULATION_SAFE_VALUE 1
 DW_MACRO_define_strp - lineno : 0 macro : __GCC_HAVE_DWARF2_CFI_ASM 1
 DW_MACRO_define_strp - lineno : 0 macro : __PRAGMA_REDEFINE_EXTNAME 1
 DW_MACRO_define_strp - lineno : 0 macro : __SIZEOF_WCHAR_T__ 4
 DW_MACRO_define_strp - lineno : 0 macro : __SIZEOF_WINT_T__ 4
 DW_MACRO_define_strp - lineno : 0 macro : __SIZEOF_PTRDIFF_T__ 4
 DW_MACRO_undef_strp - lineno : 0 macro : __ARM_FEATURE_DSP
 DW_MACRO_undef_strp - lineno : 0 macro : __ARM_FEATURE_QBIT
 DW_MACRO_undef_strp - lineno : 0 macro : __ARM_FEATURE_SAT
 DW_MACRO_undef_strp - lineno : 0 macro : __ARM_FEATURE_CRYPTO
 DW_MACRO_undef_strp - lineno : 0 macro : __ARM_FEATURE_AES
 DW_MACRO_undef_strp - lineno : 0 macro : __ARM_FEATURE_SHA2
 DW_MACRO_undef_strp - lineno : 0 macro : __ARM_FEATURE_UNALIGNED
 DW_MACRO_undef_strp - lineno : 0 macro : __ARM_FEATURE_QRDMX
 DW_MACRO_undef_strp - lineno : 0 macro : __ARM_FEATURE_CRC32
 DW_MACRO_undef_strp - lineno : 0 macro : __ARM_FEATURE_DOTPROD
 DW_MACRO_undef_strp - lineno : 0 macro : __ARM_FEATURE_COMPLEX
 DW_MACRO_define_strp - lineno : 0 macro : __ARM_32BIT_STATE 1
 DW_MACRO_undef_strp - lineno : 0 macro : __ARM_FEATURE_PAUTH
 DW_MACRO_undef_strp - lineno : 0 macro : __ARM_FEATURE_BTI
 DW_MACRO_undef_strp - lineno : 0 macro : __ARM_FEATURE_BTI_DEFAULT
 DW_MACRO_undef_strp - lineno : 0 macro : __ARM_FEATURE_PAC_DEFAULT
 DW_MACRO_undef_strp - lineno : 0 macro : __ARM_FEATURE_MVE
 DW_MACRO_undef_strp - lineno : 0 macro : __ARM_FEATURE_CMSE
 DW_MACRO_undef_strp - lineno : 0 macro : __ARM_FEATURE_LDREX
 DW_MACRO_undef_strp - lineno : 0 macro : __ARM_FEATURE_CLZ
 DW_MACRO_undef_strp - lineno : 0 macro : __ARM_FEATURE_NUMERIC_MAXMIN
 DW_MACRO_undef_strp - lineno : 0 macro : __ARM_FEATURE_SIMD32
 DW_MACRO_define_strp - lineno : 0 macro : __ARM_SIZEOF_MINIMAL_ENUM 1
 DW_MACRO_define_strp - lineno : 0 macro : __ARM_SIZEOF_WCHAR_T 4
 DW_MACRO_undef_strp - lineno : 0 macro : __ARM_ARCH_PROFILE
 DW_MACRO_define_strp - lineno : 0 macro : __arm__ 1
 DW_MACRO_undef_strp - lineno : 0 macro : __ARM_ARCH
 DW_MACRO_define_strp - lineno : 0 macro : __ARM_ARCH 4
 DW_MACRO_define_strp - lineno : 0 macro : __ARM_ARCH_ISA_ARM 1
 DW_MACRO_define_strp - lineno : 0 macro : __APCS_32__ 1
 DW_MACRO_define_strp - lineno : 0 macro : __GCC_ASM_FLAG_OUTPUTS__ 1
 DW_MACRO_undef_strp - lineno : 0 macro : __thumb__
 DW_MACRO_undef_strp - lineno : 0 macro : __thumb2__
 DW_MACRO_undef_strp - lineno : 0 macro : __THUMBEL__
 DW_MACRO_undef_strp - lineno : 0 macro : __ARM_ARCH_ISA_THUMB
 DW_MACRO_define_strp - lineno : 0 macro : __ARM_ARCH_ISA_THUMB 1
 DW_MACRO_define_strp - lineno : 0 macro : __ARMEL__ 1
 DW_MACRO_define_strp - lineno : 0 macro : __SOFTFP__ 1
 DW_MACRO_define_strp - lineno : 0 macro : __VFP_FP__ 1
 DW_MACRO_undef_strp - lineno : 0 macro : __ARM_FP
 DW_MACRO_undef_strp - lineno : 0 macro : __ARM_FP16_FORMAT_IEEE
 DW_MACRO_undef_strp - lineno : 0 macro : __ARM_FP16_FORMAT_ALTERNATIVE
 DW_MACRO_undef_strp - lineno : 0 macro : __ARM_FP16_ARGS
 DW_MACRO_undef_strp - lineno : 0 macro : __ARM_FEATURE_FP16_SCALAR_ARITHMETIC
 DW_MACRO_undef_strp - lineno : 0 macro : __ARM_FEATURE_FP16_VECTOR_ARITHMETIC
 DW_MACRO_undef_strp - lineno : 0 macro : __ARM_FEATURE_FP16_FML
 DW_MACRO_undef_strp - lineno : 0 macro : __ARM_FEATURE_FMA
 DW_MACRO_undef_strp - lineno : 0 macro : __ARM_NEON__
 DW_MACRO_undef_strp - lineno : 0 macro : __ARM_NEON
 DW_MACRO_undef_strp - lineno : 0 macro : __ARM_NEON_FP
 DW_MACRO_define_strp - lineno : 0 macro : __THUMB_INTERWORK__ 1
 DW_MACRO_define_strp - lineno : 0 macro : __ARM_ARCH_4T__ 1
 DW_MACRO_define_strp - lineno : 0 macro : __ARM_PCS 1
 DW_MACRO_define_strp - lineno : 0 macro : __ARM_EABI__ 1
 DW_MACRO_undef_strp - lineno : 0 macro : __FDPIC__
 DW_MACRO_undef_strp - lineno : 0 macro : __ARM_ARCH_EXT_IDIV__
 DW_MACRO_undef_strp - lineno : 0 macro : __ARM_FEATURE_IDIV
 DW_MACRO_undef_strp - lineno : 0 macro : __ARM_ASM_SYNTAX_UNIFIED__
 DW_MACRO_undef_strp - lineno : 0 macro : __ARM_FEATURE_COPROC
 DW_MACRO_define_strp - lineno : 0 macro : __ARM_FEATURE_COPROC 1
 DW_MACRO_undef_strp - lineno : 0 macro : __ARM_FEATURE_CDE
 DW_MACRO_undef_strp - lineno : 0 macro : __ARM_FEATURE_CDE_COPROC
 DW_MACRO_undef_strp - lineno : 0 macro : __ARM_FEATURE_MATMUL_INT8
 DW_MACRO_undef_strp - lineno : 0 macro : __ARM_FEATURE_BF16_SCALAR_ARITHMETIC
 DW_MACRO_undef_strp - lineno : 0 macro : __ARM_FEATURE_BF16_VECTOR_ARITHMETIC
 DW_MACRO_undef_strp - lineno : 0 macro : __ARM_BF16_FORMAT_ALTERNATIVE
 DW_MACRO_define_strp - lineno : 0 macro : __GXX_TYPEINFO_EQUALITY_INLINE 0
 DW_MACRO_define_strp - lineno : 0 macro : __ELF__ 1
 DW_MACRO_define_strp - lineno : 0 macro : __USES_INITFINI__ 1

Contents of the .debug_macro section (loaded from temp/firmware_disassembly.txt.o):

  Offset:                      0
  Version:                     4
  Offset size:                 4

 DW_MACRO_define_strp - lineno : 4 macro : _NEWLIB_VERSION_H__ 1
 DW_MACRO_define_strp - lineno : 6 macro : _NEWLIB_VERSION "4.4.0"
 DW_MACRO_define_strp - lineno : 7 macro : __NEWLIB__ 4
 DW_MACRO_define_strp - lineno : 8 macro : __NEWLIB_MINOR__ 4
 DW_MACRO_define_strp - lineno : 9 macro : __NEWLIB_PATCHLEVEL__ 0

Contents of the .debug_macro section (loaded from temp/firmware_disassembly.txt.o):

  Offset:                      0
  Version:                     4
  Offset size:                 4

 DW_MACRO_define_strp - lineno : 33 macro : __GNUC_PREREQ(maj,min) ((__GNUC__ << 16) + __GNUC_MINOR__ >= ((maj) << 16) + (min))
 DW_MACRO_define_strp - lineno : 40 macro : __GNUC_PREREQ__(ma,mi) __GNUC_PREREQ(ma, mi)
 DW_MACRO_undef_strp - lineno : 136 macro : _DEFAULT_SOURCE
 DW_MACRO_define_strp - lineno : 137 macro : _DEFAULT_SOURCE 1
 DW_MACRO_undef_strp - lineno : 141 macro : _POSIX_SOURCE
 DW_MACRO_define_strp - lineno : 142 macro : _POSIX_SOURCE 1
 DW_MACRO_undef_strp - lineno : 143 macro : _POSIX_C_SOURCE
 DW_MACRO_define_strp - lineno : 144 macro : _POSIX_C_SOURCE 200809L
 DW_MACRO_undef_strp - lineno : 163 macro : _ATFILE_SOURCE
 DW_MACRO_define_strp - lineno : 164 macro : _ATFILE_SOURCE 1
 DW_MACRO_define_strp - lineno : 257 macro : __ATFILE_VISIBLE 1
 DW_MACRO_define_strp - lineno : 263 macro : __BSD_VISIBLE 1
 DW_MACRO_define_strp - lineno : 271 macro : __GNU_VISIBLE 0
 DW_MACRO_define_strp - lineno : 279 macro : __ISO_C_VISIBLE 2011
 DW_MACRO_define_strp - lineno : 290 macro : __LARGEFILE_VISIBLE 0
 DW_MACRO_define_strp - lineno : 294 macro : __MISC_VISIBLE 1
 DW_MACRO_define_strp - lineno : 300 macro : __POSIX_VISIBLE 200809
 DW_MACRO_define_strp - lineno : 316 macro : __SVID_VISIBLE 1
 DW_MACRO_define_strp - lineno : 332 macro : __XSI_VISIBLE 0
 DW_MACRO_define_strp - lineno : 350 macro : __SSP_FORTIFY_LEVEL 0

Contents of the .debug_macro section (loaded from temp/firmware_disassembly.txt.o):

  Offset:                      0
  Version:                     4
  Offset size:                 4

 DW_MACRO_define_strp - lineno : 15 macro : __EXP(x) __ ##x ##__
 DW_MACRO_define_strp - lineno : 26 macro : __have_longlong64 1
 DW_MACRO_define_strp - lineno : 33 macro : __have_long32 1
 DW_MACRO_define_strp - lineno : 47 macro : ___int8_t_defined 1
 DW_MACRO_define_strp - lineno : 61 macro : ___int16_t_defined 1
 DW_MACRO_define_strp - lineno : 83 macro : ___int32_t_defined 1
 DW_MACRO_define_strp - lineno : 109 macro : ___int64_t_defined 1
 DW_MACRO_define_strp - lineno : 140 macro : ___int_least8_t_defined 1
 DW_MACRO_define_strp - lineno : 166 macro : ___int_least16_t_defined 1
 DW_MACRO_define_strp - lineno : 188 macro : ___int_least32_t_defined 1
 DW_MACRO_define_strp - lineno : 206 macro : ___int_least64_t_defined 1
 DW_MACRO_undef_strp - lineno : 244 macro : __EXP

Contents of the .debug_macro section (loaded from temp/firmware_disassembly.txt.o):

  Offset:                      0
  Version:                     4
  Offset size:                 4

 DW_MACRO_define_strp - lineno : 10 macro : _SYS__INTSUP_H 
 DW_MACRO_define_strp - lineno : 16 macro : __STDINT_EXP(x) __ ##x ##__
 DW_MACRO_undef_strp - lineno : 43 macro : signed
 DW_MACRO_undef_strp - lineno : 44 macro : unsigned
 DW_MACRO_undef_strp - lineno : 45 macro : char
 DW_MACRO_undef_strp - lineno : 46 macro : short
 DW_MACRO_undef - lineno : 47 macro : int
 DW_MACRO_undef_strp - lineno : 48 macro : __int20
 DW_MACRO_undef_strp - lineno : 49 macro : __int20__
 DW_MACRO_undef_strp - lineno : 50 macro : long
 DW_MACRO_define_strp - lineno : 51 macro : signed +0
 DW_MACRO_define_strp - lineno : 52 macro : unsigned +0
 DW_MACRO_define_strp - lineno : 53 macro : char +0
 DW_MACRO_define_strp - lineno : 54 macro : short +1
 DW_MACRO_define_strp - lineno : 55 macro : __int20 +2
 DW_MACRO_define_strp - lineno : 56 macro : __int20__ +2
 DW_MACRO_define_strp - lineno : 57 macro : int +2
 DW_MACRO_define_strp - lineno : 58 macro : long +4
 DW_MACRO_define_strp - lineno : 67 macro : _INTPTR_EQ_INT 
 DW_MACRO_define_strp - lineno : 74 macro : _INT32_EQ_LONG 
 DW_MACRO_define_strp - lineno : 82 macro : __INT8 "hh"
 DW_MACRO_define_strp - lineno : 93 macro : __INT16 "h"
 DW_MACRO_define_strp - lineno : 104 macro : __INT32 "l"
 DW_MACRO_define_strp - lineno : 113 macro : __INT64 "ll"
 DW_MACRO_define_strp - lineno : 120 macro : __FAST8 
 DW_MACRO_define_strp - lineno : 129 macro : __FAST16 
 DW_MACRO_define_strp - lineno : 136 macro : __FAST32 
 DW_MACRO_define_strp - lineno : 147 macro : __FAST64 "ll"
 DW_MACRO_define_strp - lineno : 151 macro : __LEAST8 "hh"
 DW_MACRO_define_strp - lineno : 162 macro : __LEAST16 "h"
 DW_MACRO_define_strp - lineno : 173 macro : __LEAST32 "l"
 DW_MACRO_define_strp - lineno : 182 macro : __LEAST64 "ll"
 DW_MACRO_undef_strp - lineno : 184 macro : signed
 DW_MACRO_undef_strp - lineno : 185 macro : unsigned
 DW_MACRO_undef_strp - lineno : 186 macro : char
 DW_MACRO_undef_strp - lineno : 187 macro : short
 DW_MACRO_undef - lineno : 188 macro : int
 DW_MACRO_undef_strp - lineno : 189 macro : long
 DW_MACRO_undef_strp - lineno : 194 macro : __int20
 DW_MACRO_undef_strp - lineno : 195 macro : __int20__

Contents of the .debug_macro section (loaded from temp/firmware_disassembly.txt.o):

  Offset:                      0
  Version:                     4
  Offset size:                 4

 DW_MACRO_define_strp - lineno : 10 macro : _SYS__STDINT_H 
 DW_MACRO_define_strp - lineno : 21 macro : _INT8_T_DECLARED 
 DW_MACRO_define_strp - lineno : 25 macro : _UINT8_T_DECLARED 
 DW_MACRO_define_strp - lineno : 27 macro : __int8_t_defined 1
 DW_MACRO_define_strp - lineno : 33 macro : _INT16_T_DECLARED 
 DW_MACRO_define_strp - lineno : 37 macro : _UINT16_T_DECLARED 
 DW_MACRO_define_strp - lineno : 39 macro : __int16_t_defined 1
 DW_MACRO_define_strp - lineno : 45 macro : _INT32_T_DECLARED 
 DW_MACRO_define_strp - lineno : 49 macro : _UINT32_T_DECLARED 
 DW_MACRO_define_strp - lineno : 51 macro : __int32_t_defined 1
 DW_MACRO_define_strp - lineno : 57 macro : _INT64_T_DECLARED 
 DW_MACRO_define_strp - lineno : 61 macro : _UINT64_T_DECLARED 
 DW_MACRO_define_strp - lineno : 63 macro : __int64_t_defined 1
 DW_MACRO_define_strp - lineno : 68 macro : _INTMAX_T_DECLARED 
 DW_MACRO_define_strp - lineno : 73 macro : _UINTMAX_T_DECLARED 
 DW_MACRO_define_strp - lineno : 78 macro : _INTPTR_T_DECLARED 
 DW_MACRO_define_strp - lineno : 83 macro : _UINTPTR_T_DECLARED 

Contents of the .debug_macro section (loaded from temp/firmware_disassembly.txt.o):

  Offset:                      0
  Version:                     4
  Offset size:                 4

 DW_MACRO_define_strp - lineno : 23 macro : __int_least8_t_defined 1
 DW_MACRO_define_strp - lineno : 29 macro : __int_least16_t_defined 1
 DW_MACRO_define_strp - lineno : 35 macro : __int_least32_t_defined 1
 DW_MACRO_define_strp - lineno : 41 macro : __int_least64_t_defined 1
 DW_MACRO_define_strp - lineno : 53 macro : __int_fast8_t_defined 1
 DW_MACRO_define_strp - lineno : 63 macro : __int_fast16_t_defined 1
 DW_MACRO_define_strp - lineno : 73 macro : __int_fast32_t_defined 1
 DW_MACRO_define_strp - lineno : 83 macro : __int_fast64_t_defined 1
 DW_MACRO_define_strp - lineno : 128 macro : INTPTR_MIN (-__INTPTR_MAX__ - 1)
 DW_MACRO_define_strp - lineno : 129 macro : INTPTR_MAX (__INTPTR_MAX__)
 DW_MACRO_define_strp - lineno : 130 macro : UINTPTR_MAX (__UINTPTR_MAX__)
 DW_MACRO_define_strp - lineno : 152 macro : INT8_MIN (-__INT8_MAX__ - 1)
 DW_MACRO_define_strp - lineno : 153 macro : INT8_MAX (__INT8_MAX__)
 DW_MACRO_define_strp - lineno : 154 macro : UINT8_MAX (__UINT8_MAX__)
 DW_MACRO_define_strp - lineno : 162 macro : INT_LEAST8_MIN (-__INT_LEAST8_MAX__ - 1)
 DW_MACRO_define_strp - lineno : 163 macro : INT_LEAST8_MAX (__INT_LEAST8_MAX__)
 DW_MACRO_define_strp - lineno : 164 macro : UINT_LEAST8_MAX (__UINT_LEAST8_MAX__)
 DW_MACRO_define_strp - lineno : 174 macro : INT16_MIN (-__INT16_MAX__ - 1)
 DW_MACRO_define_strp - lineno : 175 macro : INT16_MAX (__INT16_MAX__)
 DW_MACRO_define_strp - lineno : 176 macro : UINT16_MAX (__UINT16_MAX__)
 DW_MACRO_define_strp - lineno : 184 macro : INT_LEAST16_MIN (-__INT_LEAST16_MAX__ - 1)
 DW_MACRO_define_strp - lineno : 185 macro : INT_LEAST16_MAX (__INT_LEAST16_MAX__)
 DW_MACRO_define_strp - lineno : 186 macro : UINT_LEAST16_MAX (__UINT_LEAST16_MAX__)
 DW_MACRO_define_strp - lineno : 196 macro : INT32_MIN (-__INT32_MAX__ - 1)
 DW_MACRO_define_strp - lineno : 197 macro : INT32_MAX (__INT32_MAX__)
 DW_MACRO_define_strp - lineno : 198 macro : UINT32_MAX (__UINT32_MAX__)
 DW_MACRO_define_strp - lineno : 212 macro : INT_LEAST32_MIN (-__INT_LEAST32_MAX__ - 1)
 DW_MACRO_define_strp - lineno : 213 macro : INT_LEAST32_MAX (__INT_LEAST32_MAX__)
 DW_MACRO_define_strp - lineno : 214 macro : UINT_LEAST32_MAX (__UINT_LEAST32_MAX__)
 DW_MACRO_define_strp - lineno : 230 macro : INT64_MIN (-__INT64_MAX__ - 1)
 DW_MACRO_define_strp - lineno : 231 macro : INT64_MAX (__INT64_MAX__)
 DW_MACRO_define_strp - lineno : 232 macro : UINT64_MAX (__UINT64_MAX__)
 DW_MACRO_define_strp - lineno : 246 macro : INT_LEAST64_MIN (-__INT_LEAST64_MAX__ - 1)
 DW_MACRO_define_strp - lineno : 247 macro : INT_LEAST64_MAX (__INT_LEAST64_MAX__)
 DW_MACRO_define_strp - lineno : 248 macro : UINT_LEAST64_MAX (__UINT_LEAST64_MAX__)
 DW_MACRO_define_strp - lineno : 262 macro : INT_FAST8_MIN (-__INT_FAST8_MAX__ - 1)
 DW_MACRO_define_strp - lineno : 263 macro : INT_FAST8_MAX (__INT_FAST8_MAX__)
 DW_MACRO_define_strp - lineno : 264 macro : UINT_FAST8_MAX (__UINT_FAST8_MAX__)
 DW_MACRO_define_strp - lineno : 278 macro : INT_FAST16_MIN (-__INT_FAST16_MAX__ - 1)
 DW_MACRO_define_strp - lineno : 279 macro : INT_FAST16_MAX (__INT_FAST16_MAX__)
 DW_MACRO_define_strp - lineno : 280 macro : UINT_FAST16_MAX (__UINT_FAST16_MAX__)
 DW_MACRO_define_strp - lineno : 294 macro : INT_FAST32_MIN (-__INT_FAST32_MAX__ - 1)
 DW_MACRO_define_strp - lineno : 295 macro : INT_FAST32_MAX (__INT_FAST32_MAX__)
 DW_MACRO_define_strp - lineno : 296 macro : UINT_FAST32_MAX (__UINT_FAST32_MAX__)
 DW_MACRO_define_strp - lineno : 310 macro : INT_FAST64_MIN (-__INT_FAST64_MAX__ - 1)
 DW_MACRO_define_strp - lineno : 311 macro : INT_FAST64_MAX (__INT_FAST64_MAX__)
 DW_MACRO_define_strp - lineno : 312 macro : UINT_FAST64_MAX (__UINT_FAST64_MAX__)
 DW_MACRO_define_strp - lineno : 326 macro : INTMAX_MAX (__INTMAX_MAX__)
 DW_MACRO_define_strp - lineno : 327 macro : INTMAX_MIN (-INTMAX_MAX - 1)
 DW_MACRO_define_strp - lineno : 335 macro : UINTMAX_MAX (__UINTMAX_MAX__)
 DW_MACRO_define_strp - lineno : 343 macro : SIZE_MAX (__SIZE_MAX__)
 DW_MACRO_define_strp - lineno : 349 macro : SIG_ATOMIC_MIN (-__STDINT_EXP(INT_MAX) - 1)
 DW_MACRO_define_strp - lineno : 350 macro : SIG_ATOMIC_MAX (__STDINT_EXP(INT_MAX))
 DW_MACRO_define_strp - lineno : 354 macro : PTRDIFF_MAX (__PTRDIFF_MAX__)
 DW_MACRO_define_strp - lineno : 358 macro : PTRDIFF_MIN (-PTRDIFF_MAX - 1)
 DW_MACRO_define_strp - lineno : 363 macro : WCHAR_MIN (__WCHAR_MIN__)
 DW_MACRO_define_strp - lineno : 374 macro : WCHAR_MAX (__WCHAR_MAX__)
 DW_MACRO_define_strp - lineno : 384 macro : WINT_MAX (__WINT_MAX__)
 DW_MACRO_define_strp - lineno : 389 macro : WINT_MIN (__WINT_MIN__)
 DW_MACRO_define_strp - lineno : 396 macro : INT8_C(x) __INT8_C(x)
 DW_MACRO_define_strp - lineno : 397 macro : UINT8_C(x) __UINT8_C(x)
 DW_MACRO_define_strp - lineno : 408 macro : INT16_C(x) __INT16_C(x)
 DW_MACRO_define_strp - lineno : 409 macro : UINT16_C(x) __UINT16_C(x)
 DW_MACRO_define_strp - lineno : 420 macro : INT32_C(x) __INT32_C(x)
 DW_MACRO_define_strp - lineno : 421 macro : UINT32_C(x) __UINT32_C(x)
 DW_MACRO_define_strp - lineno : 433 macro : INT64_C(x) __INT64_C(x)
 DW_MACRO_define_strp - lineno : 434 macro : UINT64_C(x) __UINT64_C(x)
 DW_MACRO_define_strp - lineno : 449 macro : INTMAX_C(x) __INTMAX_C(x)
 DW_MACRO_define_strp - lineno : 450 macro : UINTMAX_C(x) __UINTMAX_C(x)

Raw dump of debug contents of section .debug_line (loaded from temp/firmware_disassembly.txt.o):

  Offset:                      0
  Length:                      585
  DWARF Version:               3
  Prologue Length:             473
  Minimum Instruction Length:  2
  Initial value of 'is_stmt':  1
  Line Base:                   -5
  Line Range:                  14
  Opcode Base:                 13

 Opcodes:
  Opcode 1 has 0 args
  Opcode 2 has 1 arg
  Opcode 3 has 1 arg
  Opcode 4 has 1 arg
  Opcode 5 has 1 arg
  Opcode 6 has 0 args
  Opcode 7 has 0 args
  Opcode 8 has 0 args
  Opcode 9 has 1 arg
  Opcode 10 has 0 args
  Opcode 11 has 0 args
  Opcode 12 has 1 arg

 The Directory Table (offset 0x1b):
  1	src
  2	/opt/arm-gnu-toolchain-13.3.rel1-x86_64-arm-none-eabi/arm-none-eabi/include/machine
  3	/opt/arm-gnu-toolchain-13.3.rel1-x86_64-arm-none-eabi/arm-none-eabi/include/sys
  4	/opt/arm-gnu-toolchain-13.3.rel1-x86_64-arm-none-eabi/lib/gcc/arm-none-eabi/13.3.1/include
  5	/opt/arm-gnu-toolchain-13.3.rel1-x86_64-arm-none-eabi/arm-none-eabi/include

 The File Name Table (offset 0x16b):
  Entry	Dir	Time	Size	Name
  1	1	0	0	07_t_bit.c
  2	2	0	0	_default_types.h
  3	3	0	0	_stdint.h
  4	4	0	0	stdint.h
  5	5	0	0	stdint.h
  6	3	0	0	features.h
  7	5	0	0	_newlib_version.h
  8	3	0	0	_intsup.h

 Line Number Statements:
  [0x000001e3]  Set column to 1
  [0x000001e5]  Extended opcode 2: set Address to 0
  [0x000001ec]  Special opcode 9: advance Address by 0 to 0 and Line by 4 to 5
  [0x000001ed]  Special opcode 65: advance Address by 8 to 0x8 and Line by 4 to 9
  [0x000001ee]  Special opcode 119: advance Address by 16 to 0x18 and Line by 2 to 11
  [0x000001ef]  Set column to 9
  [0x000001f1]  Special opcode 118: advance Address by 16 to 0x28 and Line by 1 to 12
  [0x000001f2]  Set column to 12
  [0x000001f4]  Special opcode 63: advance Address by 8 to 0x30 and Line by 2 to 14
  [0x000001f5]  Set column to 5
  [0x000001f7]  Special opcode 61: advance Address by 8 to 0x38 and Line by 0 to 14
  [0x000001f8]  Set column to 14
  [0x000001fa]  Special opcode 35: advance Address by 4 to 0x3c and Line by 2 to 16
  [0x000001fb]  Set column to 36
  [0x000001fd]  Special opcode 90: advance Address by 12 to 0x48 and Line by 1 to 17
  [0x000001fe]  Set column to 9
  [0x00000200]  Special opcode 117: advance Address by 16 to 0x58 and Line by 0 to 17
  [0x00000201]  Set column to 31
  [0x00000203]  Special opcode 61: advance Address by 8 to 0x60 and Line by 0 to 17
  [0x00000204]  Set column to 34
  [0x00000206]  Extended opcode 4: set Discriminator to 3
  [0x0000020a]  Special opcode 30: advance Address by 4 to 0x64 and Line by -3 to 14
  [0x0000020b]  Set column to 20
  [0x0000020d]  Extended opcode 4: set Discriminator to 1
  [0x00000211]  Special opcode 89: advance Address by 12 to 0x70 and Line by 0 to 14
  [0x00000212]  Set column to 24
  [0x00000214]  Extended opcode 4: set Discriminator to 1
  [0x00000218]  Special opcode 117: advance Address by 16 to 0x80 and Line by 0 to 14
  [0x00000219]  Set column to 25
  [0x0000021b]  Special opcode 67: advance Address by 8 to 0x88 and Line by 6 to 20
  [0x0000021c]  Set column to 11
  [0x0000021e]  Special opcode 145: advance Address by 20 to 0x9c and Line by 0 to 20
  [0x0000021f]  Set column to 14
  [0x00000221]  Special opcode 62: advance Address by 8 to 0xa4 and Line by 1 to 21
  [0x00000222]  Set column to 5
  [0x00000224]  Special opcode 61: advance Address by 8 to 0xac and Line by 0 to 21
  [0x00000225]  Set column to 9
  [0x00000227]  Special opcode 35: advance Address by 4 to 0xb0 and Line by 2 to 23
  [0x00000228]  Set column to 37
  [0x0000022a]  Special opcode 145: advance Address by 20 to 0xc4 and Line by 0 to 23
  [0x0000022b]  Set column to 33
  [0x0000022d]  Extended opcode 4: set Discriminator to 3
  [0x00000231]  Special opcode 59: advance Address by 8 to 0xcc and Line by -2 to 21
  [0x00000232]  Set column to 23
  [0x00000234]  Extended opcode 4: set Discriminator to 1
  [0x00000238]  Special opcode 89: advance Address by 12 to 0xd8 and Line by 0 to 21
  [0x00000239]  Set column to 1
  [0x0000023b]  Special opcode 121: advance Address by 16 to 0xe8 and Line by 4 to 25
  [0x0000023c]  Special opcode 147: advance Address by 20 to 0xfc and Line by 2 to 27
  [0x0000023d]  Set column to 16
  [0x0000023f]  Advance Line by 17 to 44
  [0x00000241]  Special opcode 89: advance Address by 12 to 0x108 and Line by 0 to 44
  [0x00000242]  Special opcode 63: advance Address by 8 to 0x110 and Line by 2 to 46
  [0x00000243]  Special opcode 62: advance Address by 8 to 0x118 and Line by 1 to 47
  [0x00000244]  Set column to 5
  [0x00000246]  Special opcode 62: advance Address by 8 to 0x120 and Line by 1 to 48
  [0x00000247]  Special opcode 120: advance Address by 16 to 0x130 and Line by 3 to 51
  [0x00000248]  Advance PC by 20 to 0x144
  [0x0000024a]  Extended opcode 1: End of Sequence


Contents of the .debug_str section (loaded from temp/firmware_disassembly.txt.o):

  0x00000000 5f5f5349 475f4154 4f4d4943 5f4d4158 __SIG_ATOMIC_MAX
  0x00000010 5f5f2030 78376666 66666666 66005f5f __ 0x7fffffff.__
  0x00000020 54415f46 4249545f 5f203633 005f5f55 TA_FBIT__ 63.__U
  0x00000030 46524143 545f4942 49545f5f 2030005f FRACT_IBIT__ 0._
  0x00000040 5f464c54 33325f48 41535f49 4e46494e _FLT32_HAS_INFIN
  0x00000050 4954595f 5f203100 5f5f696e 745f6661 ITY__ 1.__int_fa
  0x00000060 7374385f 745f6465 66696e65 64203100 st8_t_defined 1.
  0x00000070 5f5f5549 4e545f46 41535438 5f545950 __UINT_FAST8_TYP
  0x00000080 455f5f20 756e7369 676e6564 20696e74 E__ unsigned int
  0x00000090 005f5f46 4c543634 5f4d4158 5f455850 .__FLT64_MAX_EXP
  0x000000a0 5f5f2031 30323400 494e545f 4c454153 __ 1024.INT_LEAS
  0x000000b0 54385f4d 41582028 5f5f494e 545f4c45 T8_MAX (__INT_LE
  0x000000c0 41535438 5f4d4158 5f5f2900 5f5f6861 AST8_MAX__).__ha
  0x000000d0 76655f6c 6f6e6733 32203100 5f5f464c ve_long32 1.__FL
  0x000000e0 54333258 5f4d4158 5f455850 5f5f2031 T32X_MAX_EXP__ 1
  0x000000f0 30323400 5f5f494e 545f4641 53543136 024.__INT_FAST16
  0x00000100 5f574944 54485f5f 20333200 5f5f4743 _WIDTH__ 32.__GC
  0x00000110 435f4154 4f4d4943 5f544553 545f414e C_ATOMIC_TEST_AN
  0x00000120 445f5345 545f5452 55455641 4c203100 D_SET_TRUEVAL 1.
  0x00000130 494e544d 41585f4d 494e2028 2d494e54 INTMAX_MIN (-INT
  0x00000140 4d41585f 4d415820 2d203129 005f5f55 MAX_MAX - 1).__U
  0x00000150 4c414343 554d5f45 5053494c 4f4e5f5f LACCUM_EPSILON__
  0x00000160 20307831 502d3332 554c4b00 5f5f4152  0x1P-32ULK.__AR
  0x00000170 4d5f4645 41545552 455f5349 4d443332 M_FEATURE_SIMD32
  0x00000180 005f5f46 4c543332 5f4d414e 545f4449 .__FLT32_MANT_DI
  0x00000190 475f5f20 32340063 68617200 494e545f G__ 24.char.INT_
  0x000001a0 4c454153 5436345f 4d494e20 282d5f5f LEAST64_MIN (-__
  0x000001b0 494e545f 4c454153 5436345f 4d41585f INT_LEAST64_MAX_
  0x000001c0 5f202d20 3129005f 5f55494e 54385f43 _ - 1).__UINT8_C
  0x000001d0 28632920 63005f5f 41524d5f 4e454f4e (c) c.__ARM_NEON
  0x000001e0 5f5f005f 5f53495a 454f465f 57494e54 __.__SIZEOF_WINT
  0x000001f0 5f545f5f 2034005f 5f51515f 49424954 _T__ 4.__QQ_IBIT
  0x00000200 5f5f2030 005f5f55 44515f49 4249545f __ 0.__UDQ_IBIT_
  0x00000210 5f203000 5f5f4152 4d5f4645 41545552 _ 0.__ARM_FEATUR
  0x00000220 455f4d41 544d554c 5f494e54 38005549 E_MATMUL_INT8.UI
  0x00000230 4e543634 5f432878 29205f5f 55494e54 NT64_C(x) __UINT
  0x00000240 36345f43 28782900 5f5f4743 435f4154 64_C(x).__GCC_AT
  0x00000250 4f4d4943 5f53484f 52545f4c 4f434b5f OMIC_SHORT_LOCK_
  0x00000260 46524545 2031005f 5f464c54 3332585f FREE 1.__FLT32X_
  0x00000270 44454349 4d414c5f 4449475f 5f203137 DECIMAL_DIG__ 17
  0x00000280 005f5f58 53495f56 49534942 4c452030 .__XSI_VISIBLE 0
  0x00000290 005f5f44 424c5f4d 494e5f45 58505f5f .__DBL_MIN_EXP__
  0x000002a0 20282d31 30323129 005f5f4c 4f4e475f  (-1021).__LONG_
  0x000002b0 4c4f4e47 5f574944 54485f5f 20363400 LONG_WIDTH__ 64.
  0x000002c0 5f5f4743 435f4154 4f4d4943 5f434841 __GCC_ATOMIC_CHA
  0x000002d0 5231365f 545f4c4f 434b5f46 52454520 R16_T_LOCK_FREE 
  0x000002e0 31005f5f 41524d5f 46454154 5552455f 1.__ARM_FEATURE_
  0x000002f0 4344455f 434f5052 4f43005f 5f41524d CDE_COPROC.__ARM
  0x00000300 5f53495a 454f465f 57434841 525f5420 _SIZEOF_WCHAR_T 
  0x00000310 34005f5f 41524d5f 46503136 5f464f52 4.__ARM_FP16_FOR
  0x00000320 4d41545f 49454545 005f5f50 4f534958 MAT_IEEE.__POSIX
  0x00000330 5f564953 49424c45 20323030 38303900 _VISIBLE 200809.
  0x00000340 5f5f4152 4d5f4645 41545552 455f434f __ARM_FEATURE_CO
  0x00000350 4d504c45 58005f5f 4c4c4652 4143545f MPLEX.__LLFRACT_
  0x00000360 49424954 5f5f2030 005f5f46 4c543332 IBIT__ 0.__FLT32
  0x00000370 585f4841 535f5155 4945545f 4e414e5f X_HAS_QUIET_NAN_
  0x00000380 5f203100 5f5f474e 55435f50 52455245 _ 1.__GNUC_PRERE
  0x00000390 51286d61 6a2c6d69 6e292028 285f5f47 Q(maj,min) ((__G
  0x000003a0 4e55435f 5f203c3c 20313629 202b205f NUC__ << 16) + _
  0x000003b0 5f474e55 435f4d49 4e4f525f 5f203e3d _GNUC_MINOR__ >=
  0x000003c0 2028286d 616a2920 3c3c2031 3629202b  ((maj) << 16) +
  0x000003d0 20286d69 6e292900 5f5f4442 4c5f4d41  (min)).__DBL_MA
  0x000003e0 585f5f20 2828646f 75626c65 29312e37 X__ ((double)1.7
  0x000003f0 39373639 33313334 38363233 31353765 976931348623157e
  0x00000400 2b333038 4c29005f 504f5349 585f435f +308L)._POSIX_C_
  0x00000410 534f5552 4345005f 5f555346 52414354 SOURCE.__USFRACT
  0x00000420 5f4d494e 5f5f2030 2e305548 52005549 _MIN__ 0.0UHR.UI
  0x00000430 4e545f4c 45415354 31365f4d 41582028 NT_LEAST16_MAX (
  0x00000440 5f5f5549 4e545f4c 45415354 31365f4d __UINT_LEAST16_M
  0x00000450 41585f5f 29005f5f 464c5433 32585f4d AX__).__FLT32X_M
  0x00000460 494e5f45 58505f5f 20282d31 30323129 IN_EXP__ (-1021)
  0x00000470 005f5f47 4e55435f 4d494e4f 525f5f20 .__GNUC_MINOR__ 
  0x00000480 3300756e 7369676e 65642069 6e740049 3.unsigned int.I
  0x00000490 4e545f4c 45415354 385f4d49 4e20282d NT_LEAST8_MIN (-
  0x000004a0 5f5f494e 545f4c45 41535438 5f4d4158 __INT_LEAST8_MAX
  0x000004b0 5f5f202d 20312900 5f5f4152 4d5f4645 __ - 1).__ARM_FE
  0x000004c0 41545552 455f4352 5950544f 005f5f44 ATURE_CRYPTO.__D
  0x000004d0 424c5f4e 4f524d5f 4d41585f 5f202828 BL_NORM_MAX__ ((
  0x000004e0 646f7562 6c652931 2e373937 36393331 double)1.7976931
  0x000004f0 33343836 32333135 37652b33 30384c29 348623157e+308L)
  0x00000500 005f5f46 4c543332 5f49535f 4945435f .__FLT32_IS_IEC_
  0x00000510 36303535 395f5f20 31005f5f 55494e54 60559__ 1.__UINT
  0x00000520 31365f43 28632920 63005f50 4f534958 16_C(c) c._POSIX
  0x00000530 5f534f55 52434500 5f5f5349 5a454f46 _SOURCE.__SIZEOF
  0x00000540 5f53495a 455f545f 5f203400 5f5f4348 _SIZE_T__ 4.__CH
  0x00000550 41523136 5f545950 455f5f20 73686f72 AR16_TYPE__ shor
  0x00000560 7420756e 7369676e 65642069 6e74005f t unsigned int._
  0x00000570 5f53495a 454f465f 4c4f4e47 5f444f55 _SIZEOF_LONG_DOU
  0x00000580 424c455f 5f203800 5f5f4c44 424c5f49 BLE__ 8.__LDBL_I
  0x00000590 535f4945 435f3630 3535395f 5f203100 S_IEC_60559__ 1.
  0x000005a0 5f5f494e 545f4641 5354385f 4d41585f __INT_FAST8_MAX_
  0x000005b0 5f203078 37666666 66666666 005f5f4f _ 0x7fffffff.__O
  0x000005c0 52444552 5f424947 5f454e44 49414e5f RDER_BIG_ENDIAN_
  0x000005d0 5f203433 3231005f 5f554c4c 46524143 _ 4321.__ULLFRAC
  0x000005e0 545f4d41 585f5f20 30584646 46464646 T_MAX__ 0XFFFFFF
  0x000005f0 46464646 46464646 4646502d 3634554c FFFFFFFFFFP-64UL
  0x00000600 4c52005f 5f474343 5f434f4e 53545255 LR.__GCC_CONSTRU
  0x00000610 43544956 455f5349 5a452036 34007368 CTIVE_SIZE 64.sh
  0x00000620 6f727420 2b31005f 5f44424c 5f4d414e ort +1.__DBL_MAN
  0x00000630 545f4449 475f5f20 3533005f 5f55494e T_DIG__ 53.__UIN
  0x00000640 545f4c45 41535436 345f5459 50455f5f T_LEAST64_TYPE__
  0x00000650 206c6f6e 67206c6f 6e672075 6e736967  long long unsig
  0x00000660 6e656420 696e7400 5f5f494e 545f4d41 ned int.__INT_MA
  0x00000670 585f5f20 30783766 66666666 6666005f X__ 0x7fffffff._
  0x00000680 5f41544f 4d49435f 52454c45 41534520 _ATOMIC_RELEASE 
  0x00000690 33005f5f 50545244 4946465f 54595045 3.__PTRDIFF_TYPE
  0x000006a0 5f5f2069 6e74005f 5f434841 525f554e __ int.__CHAR_UN
  0x000006b0 5349474e 45445f5f 20310055 494e545f SIGNED__ 1.UINT_
  0x000006c0 4c454153 5433325f 4d415820 285f5f55 LEAST32_MAX (__U
  0x000006d0 494e545f 4c454153 5433325f 4d41585f INT_LEAST32_MAX_
  0x000006e0 5f29005f 5f494e54 31365f54 5950455f _).__INT16_TYPE_
  0x000006f0 5f207368 6f727420 696e7400 5f5f4743 _ short int.__GC
  0x00000700 435f4154 4f4d4943 5f434841 525f4c4f C_ATOMIC_CHAR_LO
  0x00000710 434b5f46 52454520 31005f5f 41524d5f CK_FREE 1.__ARM_
  0x00000720 46454154 5552455f 5152444d 58005f5f FEATURE_QRDMX.__
  0x00000730 696e7438 5f745f64 6566696e 65642031 int8_t_defined 1
  0x00000740 005f5f4c 44424c5f 4449475f 5f203135 .__LDBL_DIG__ 15
  0x00000750 005f5f46 4c543332 5f4d4158 5f5f2033 .__FLT32_MAX__ 3
  0x00000760 2e343032 38323334 36363338 35323838 .402823466385288
  0x00000770 36652b33 38463332 005f5f4c 4c414343 6e+38F32.__LLACC
  0x00000780 554d5f49 4249545f 5f203332 0055494e UM_IBIT__ 32.UIN
  0x00000790 54385f43 28782920 5f5f5549 4e54385f T8_C(x) __UINT8_
  0x000007a0 43287829 005f5f41 544f4d49 435f5345 C(x).__ATOMIC_SE
  0x000007b0 515f4353 54203500 55494e54 5f4c4541 Q_CST 5.UINT_LEA
  0x000007c0 53543634 5f4d4158 20285f5f 55494e54 ST64_MAX (__UINT
  0x000007d0 5f4c4541 53543634 5f4d4158 5f5f2900 _LEAST64_MAX__).
  0x000007e0 5f5f5349 5a454f46 5f53484f 52545f5f __SIZEOF_SHORT__
  0x000007f0 2032005f 4e45574c 49425f56 45525349  2._NEWLIB_VERSI
  0x00000800 4f4e5f48 5f5f2031 005f5f49 4e545f4c ON_H__ 1.__INT_L
  0x00000810 45415354 385f4d41 585f5f20 30783766 EAST8_MAX__ 0x7f
  0x00000820 005f5f49 4e545f4c 45415354 385f5459 .__INT_LEAST8_TY
  0x00000830 50455f5f 20736967 6e656420 63686172 PE__ signed char
  0x00000840 005f5f46 4c543634 5f4d414e 545f4449 .__FLT64_MANT_DI
  0x00000850 475f5f20 3533005f 5f55494e 544d4158 G__ 53.__UINTMAX
  0x00000860 5f432863 29206320 23232055 4c4c0049 _C(c) c ## ULL.I
  0x00000870 4e543332 5f432878 29205f5f 494e5433 NT32_C(x) __INT3
  0x00000880 325f4328 78290069 6e74202b 32005f5f 2_C(x).int +2.__
  0x00000890 4e45574c 49425f5f 2034005f 5f425954 NEWLIB__ 4.__BYT
  0x000008a0 455f4f52 4445525f 5f205f5f 4f524445 E_ORDER__ __ORDE
  0x000008b0 525f4c49 54544c45 5f454e44 49414e5f R_LITTLE_ENDIAN_
  0x000008c0 5f005f5f 464c5433 325f4d49 4e5f3130 _.__FLT32_MIN_10
  0x000008d0 5f455850 5f5f2028 2d333729 005f5f69 _EXP__ (-37).__i
  0x000008e0 6e743230 005f5f4c 46524143 545f4942 nt20.__LFRACT_IB
  0x000008f0 49545f5f 2030005f 5f41524d 5f415243 IT__ 0.__ARM_ARC
  0x00000900 48203400 5f5f4253 445f5649 5349424c H 4.__BSD_VISIBL
  0x00000910 45203100 63686172 202b3000 5f55494e E 1.char +0._UIN
  0x00000920 5431365f 545f4445 434c4152 45442000 T16_T_DECLARED .
  0x00000930 5f5f5354 44435f55 54465f33 325f5f20 __STDC_UTF_32__ 
  0x00000940 31002f68 6f6d652f 6164692f 64617461 1./home/adi/data
  0x00000950 2f73746d 33326631 005f5f49 4e545f4c /stm32f1.__INT_L
  0x00000960 45415354 31365f4d 41585f5f 20307837 EAST16_MAX__ 0x7
  0x00000970 66666600 494e5450 54525f4d 41582028 fff.INTPTR_MAX (
  0x00000980 5f5f494e 54505452 5f4d4158 5f5f2900 __INTPTR_MAX__).
  0x00000990 5f5f5343 4841525f 4d41585f 5f203078 __SCHAR_MAX__ 0x
  0x000009a0 3766005f 5f464c54 36345f4e 4f524d5f 7f.__FLT64_NORM_
  0x000009b0 4d41585f 5f20312e 37393736 39333133 MAX__ 1.79769313
  0x000009c0 34383632 33313537 652b3330 38463634 48623157e+308F64
  0x000009d0 005f5f41 524d5f46 45415455 52455f4e .__ARM_FEATURE_N
  0x000009e0 554d4552 49435f4d 41584d49 4e005f5f UMERIC_MAXMIN.__
  0x000009f0 554c4c46 52414354 5f494249 545f5f20 ULLFRACT_IBIT__ 
  0x00000a00 30005f5f 464c5436 345f4449 475f5f20 0.__FLT64_DIG__ 
  0x00000a10 3135005f 5f464153 54333220 005f5f41 15.__FAST32 .__A
  0x00000a20 544f4d49 435f5245 4c415845 44203000 TOMIC_RELAXED 0.
  0x00000a30 5f5f4152 4d5f4645 41545552 455f4650 __ARM_FEATURE_FP
  0x00000a40 31365f46 4d4c005f 5f53495a 455f4d41 16_FML.__SIZE_MA
  0x00000a50 585f5f20 30786666 66666666 66665500 X__ 0xffffffffU.
  0x00000a60 5f55494e 5433325f 545f4445 434c4152 _UINT32_T_DECLAR
  0x00000a70 45442000 5f5f4c41 4343554d 5f4d494e ED .__LACCUM_MIN
  0x00000a80 5f5f2028 2d305831 5033314c 4b2d3058 __ (-0X1P31LK-0X
  0x00000a90 31503331 4c4b2900 5f5f554c 4c414343 1P31LK).__ULLACC
  0x00000aa0 554d5f4d 41585f5f 20305846 46464646 UM_MAX__ 0XFFFFF
  0x00000ab0 46464646 46464646 46464650 2d333255 FFFFFFFFFFFP-32U
  0x00000ac0 4c4c4b00 5f5f554c 41434355 4d5f4d49 LLK.__ULACCUM_MI
  0x00000ad0 4e5f5f20 302e3055 4c4b005f 5f464c54 N__ 0.0ULK.__FLT
  0x00000ae0 3332585f 4841535f 494e4649 4e495459 32X_HAS_INFINITY
  0x00000af0 5f5f2031 005f5f46 4c545f48 41535f49 __ 1.__FLT_HAS_I
  0x00000b00 4e46494e 4954595f 5f203100 5f415446 NFINITY__ 1._ATF
  0x00000b10 494c455f 534f5552 4345005f 5f4e4557 ILE_SOURCE.__NEW
  0x00000b20 4c49425f 4d494e4f 525f5f20 34005f5f LIB_MINOR__ 4.__
  0x00000b30 464c5433 325f4550 53494c4f 4e5f5f20 FLT32_EPSILON__ 
  0x00000b40 312e3139 32303932 38393535 30373831 1.19209289550781
  0x00000b50 3235652d 37463332 005f5f55 44415f49 25e-7F32.__UDA_I
  0x00000b60 4249545f 5f203332 005f5f41 524d5f46 BIT__ 32.__ARM_F
  0x00000b70 45415455 52455f42 5449005f 5f494e54 EATURE_BTI.__INT
  0x00000b80 5f464153 5436345f 54595045 5f5f206c _FAST64_TYPE__ l
  0x00000b90 6f6e6720 6c6f6e67 20696e74 005f5f49 ong long int.__I
  0x00000ba0 4e54385f 43286329 20630073 69676e65 NT8_C(c) c.signe
  0x00000bb0 64206368 6172005f 5f41524d 5f333242 d char.__ARM_32B
  0x00000bc0 49545f53 54415445 2031005f 5f464450 IT_STATE 1.__FDP
  0x00000bd0 49435f5f 005f5f49 4e545f4c 45415354 IC__.__INT_LEAST
  0x00000be0 31365f57 49445448 5f5f2031 36005f5f 16_WIDTH__ 16.__
  0x00000bf0 4c454153 54363420 226c6c22 005f5f41 LEAST64 "ll".__A
  0x00000c00 524d5f46 5031365f 464f524d 41545f41 RM_FP16_FORMAT_A
  0x00000c10 4c544552 4e415449 5645005f 5f554c4c LTERNATIVE.__ULL
  0x00000c20 41434355 4d5f4d49 4e5f5f20 302e3055 ACCUM_MIN__ 0.0U
  0x00000c30 4c4c4b00 75696e74 33325f74 005f4743 LLK.uint32_t._GC
  0x00000c40 435f5752 41505f53 5444494e 545f4820 C_WRAP_STDINT_H 
  0x00000c50 005f5f41 524d5f46 45415455 52455f44 .__ARM_FEATURE_D
  0x00000c60 4f545052 4f44005f 5f41524d 5f4e454f OTPROD.__ARM_NEO
  0x00000c70 4e005f5f 41524d5f 46454154 5552455f N.__ARM_FEATURE_
  0x00000c80 434d5345 005f5f55 494e5450 54525f54 CMSE.__UINTPTR_T
  0x00000c90 5950455f 5f20756e 7369676e 65642069 YPE__ unsigned i
  0x00000ca0 6e74005f 5f464c54 33325f48 41535f44 nt.__FLT32_HAS_D
  0x00000cb0 454e4f52 4d5f5f20 31005f5f 464c5436 ENORM__ 1.__FLT6
  0x00000cc0 345f4445 4e4f524d 5f4d494e 5f5f2034 4_DENORM_MIN__ 4
  0x00000cd0 2e393430 36353634 35383431 32343635 .940656458412465
  0x00000ce0 34652d33 32344636 34005f5f 53415f49 4e-324F64.__SA_I
  0x00000cf0 4249545f 5f203136 005f5f4c 4c465241 BIT__ 16.__LLFRA
  0x00000d00 43545f4d 41585f5f 20305837 46464646 CT_MAX__ 0X7FFFF
  0x00000d10 46464646 46464646 46464650 2d36334c FFFFFFFFFFFP-63L
  0x00000d20 4c520053 49475f41 544f4d49 435f4d41 LR.SIG_ATOMIC_MA
  0x00000d30 5820285f 5f535444 494e545f 45585028 X (__STDINT_EXP(
  0x00000d40 494e545f 4d415829 29005f5f 494e545f INT_MAX)).__INT_
  0x00000d50 46415354 36345f4d 41585f5f 20307837 FAST64_MAX__ 0x7
  0x00000d60 66666666 66666666 66666666 6666664c fffffffffffffffL
  0x00000d70 4c005f5f 5353505f 464f5254 4946595f L.__SSP_FORTIFY_
  0x00000d80 4c455645 4c203000 5f5f4152 4d5f4645 LEVEL 0.__ARM_FE
  0x00000d90 41545552 455f4650 31365f53 43414c41 ATURE_FP16_SCALA
  0x00000da0 525f4152 4954484d 45544943 005f5f46 R_ARITHMETIC.__F
  0x00000db0 4c545f44 49475f5f 2036005f 5f44424c LT_DIG__ 6.__DBL
  0x00000dc0 5f455053 494c4f4e 5f5f2028 28646f75 _EPSILON__ ((dou
  0x00000dd0 626c6529 322e3232 30343436 30343932 ble)2.2204460492
  0x00000de0 35303331 3331652d 31364c29 005f494e 503131e-16L)._IN
  0x00000df0 544d4158 5f545f44 45434c41 52454420 TMAX_T_DECLARED 
  0x00000e00 005f5f4d 4953435f 56495349 424c4520 .__MISC_VISIBLE 
  0x00000e10 31006c6f 6e67005f 5f44415f 46424954 1.long.__DA_FBIT
  0x00000e20 5f5f2033 31005f5f 41524d5f 53495a45 __ 31.__ARM_SIZE
  0x00000e30 4f465f4d 494e494d 414c5f45 4e554d20 OF_MINIMAL_ENUM 
  0x00000e40 31005f5f 55534553 5f494e49 5446494e 1.__USES_INITFIN
  0x00000e50 495f5f20 3100636f 756e7400 5f5f4743 I__ 1.count.__GC
  0x00000e60 435f4945 435f3535 39203000 7369676e C_IEC_559 0.sign
  0x00000e70 6564202b 30005f5f 55534143 43554d5f ed +0.__USACCUM_
  0x00000e80 45505349 4c4f4e5f 5f203078 31502d38 EPSILON__ 0x1P-8
  0x00000e90 55484b00 5f5f5f69 6e74385f 745f6465 UHK.___int8_t_de
  0x00000ea0 66696e65 64203100 5f5f5054 52444946 fined 1.__PTRDIF
  0x00000eb0 465f4d41 585f5f20 30783766 66666666 F_MAX__ 0x7fffff
  0x00000ec0 6666005f 5f464c54 33325f48 41535f51 ff.__FLT32_HAS_Q
  0x00000ed0 55494554 5f4e414e 5f5f2031 0055494e UIET_NAN__ 1.UIN
  0x00000ee0 5433325f 4d415820 285f5f55 494e5433 T32_MAX (__UINT3
  0x00000ef0 325f4d41 585f5f29 005f5f55 4c414343 2_MAX__).__ULACC
  0x00000f00 554d5f4d 41585f5f 20305846 46464646 UM_MAX__ 0XFFFFF
  0x00000f10 46464646 46464646 46464650 2d333255 FFFFFFFFFFFP-32U
  0x00000f20 4c4b005f 5f554652 4143545f 4d41585f LK.__UFRACT_MAX_
  0x00000f30 5f203058 46464646 502d3136 5552005f _ 0XFFFFP-16UR._
  0x00000f40 5f534652 4143545f 4d41585f 5f203058 _SFRACT_MAX__ 0X
  0x00000f50 3746502d 37485200 5f5f474e 55435f5f 7FP-7HR.__GNUC__
  0x00000f60 20313300 5f5f4152 4d5f4645 41545552  13.__ARM_FEATUR
  0x00000f70 455f5348 4132005f 5359535f 46454154 E_SHA2._SYS_FEAT
  0x00000f80 55524553 5f482000 6c6f6e67 206c6f6e URES_H .long lon
  0x00000f90 6720756e 7369676e 65642069 6e74005f g unsigned int._
  0x00000fa0 5f494e54 36345f4d 41585f5f 20307837 _INT64_MAX__ 0x7
  0x00000fb0 66666666 66666666 66666666 6666664c fffffffffffffffL
  0x00000fc0 4c005f5f 494e5438 5f4d4158 5f5f2030 L.__INT8_MAX__ 0
  0x00000fd0 78376600 5f5f554c 46524143 545f4550 x7f.__ULFRACT_EP
  0x00000fe0 53494c4f 4e5f5f20 30783150 2d333255 SILON__ 0x1P-32U
  0x00000ff0 4c52005f 5f494e54 5f4c4541 53543332 LR.__INT_LEAST32
  0x00001000 5f545950 455f5f20 6c6f6e67 20696e74 _TYPE__ long int
  0x00001010 005f5f55 4c465241 43545f49 4249545f .__ULFRACT_IBIT_
  0x00001020 5f203000 5f5f4c4c 41434355 4d5f4642 _ 0.__LLACCUM_FB
  0x00001030 49545f5f 20333100 5f5f5549 4e545f4c IT__ 31.__UINT_L
  0x00001040 45415354 36345f4d 41585f5f 20307866 EAST64_MAX__ 0xf
  0x00001050 66666666 66666666 66666666 66666655 fffffffffffffffU
  0x00001060 4c4c005f 5f464c54 5f524144 49585f5f LL.__FLT_RADIX__
  0x00001070 2032005f 5f554c4c 46524143 545f4d49  2.__ULLFRACT_MI
  0x00001080 4e5f5f20 302e3055 4c4c5200 5f5f4442 N__ 0.0ULLR.__DB
  0x00001090 4c5f4841 535f5155 4945545f 4e414e5f L_HAS_QUIET_NAN_
  0x000010a0 5f203100 5f5f5541 4343554d 5f4d494e _ 1.__UACCUM_MIN
  0x000010b0 5f5f2030 2e30554b 005f5f41 524d5f46 __ 0.0UK.__ARM_F
  0x000010c0 45415455 52455f51 42495400 5f5f4c46 EATURE_QBIT.__LF
  0x000010d0 52414354 5f455053 494c4f4e 5f5f2030 RACT_EPSILON__ 0
  0x000010e0 7831502d 33314c52 005f5f49 4e545f46 x1P-31LR.__INT_F
  0x000010f0 41535438 5f545950 455f5f20 696e7400 AST8_TYPE__ int.
  0x00001100 494e545f 4c454153 5431365f 4d415820 INT_LEAST16_MAX 
  0x00001110 285f5f49 4e545f4c 45415354 31365f4d (__INT_LEAST16_M
  0x00001120 41585f5f 29005f5f 464c5436 345f4841 AX__).__FLT64_HA
  0x00001130 535f494e 46494e49 54595f5f 2031005f S_INFINITY__ 1._
  0x00001140 5f464c54 3332585f 44454e4f 524d5f4d _FLT32X_DENORM_M
  0x00001150 494e5f5f 20342e39 34303635 36343538 IN__ 4.940656458
  0x00001160 34313234 36353465 2d333234 46333278 4124654e-324F32x
  0x00001170 005f5f53 41434355 4d5f4642 49545f5f .__SACCUM_FBIT__
  0x00001180 2037005f 5f574348 41525f54 5950455f  7.__WCHAR_TYPE_
  0x00001190 5f20756e 7369676e 65642069 6e74005f _ unsigned int._
  0x000011a0 5f41524d 5f41534d 5f53594e 5441585f _ARM_ASM_SYNTAX_
  0x000011b0 554e4946 4945445f 5f005f5f 44424c5f UNIFIED__.__DBL_
  0x000011c0 4d494e5f 5f202828 646f7562 6c652932 MIN__ ((double)2
  0x000011d0 2e323235 30373338 35383530 37323031 .225073858507201
  0x000011e0 34652d33 30384c29 005f5f46 4c543634 4e-308L).__FLT64
  0x000011f0 5f4d494e 5f5f2032 2e323235 30373338 _MIN__ 2.2250738
  0x00001200 35383530 37323031 34652d33 30384636 585072014e-308F6
  0x00001210 34005f5f 46524143 545f4d49 4e5f5f20 4.__FRACT_MIN__ 
  0x00001220 282d302e 35522d30 2e355229 005f5f47 (-0.5R-0.5R).__G
  0x00001230 43435f41 544f4d49 435f494e 545f4c4f CC_ATOMIC_INT_LO
  0x00001240 434b5f46 52454520 31005f5f 494e544d CK_FREE 1.__INTM
  0x00001250 41585f4d 41585f5f 20307837 66666666 AX_MAX__ 0x7ffff
  0x00001260 66666666 66666666 6666664c 4c005f55 fffffffffffLL._U
  0x00001270 494e5436 345f545f 4445434c 41524544 INT64_T_DECLARED
  0x00001280 20005f5f 55414343 554d5f45 5053494c  .__UACCUM_EPSIL
  0x00001290 4f4e5f5f 20307831 502d3136 554b0066 ON__ 0x1P-16UK.f
  0x000012a0 5f707472 3200665f 70747233 005f5f41 _ptr2.f_ptr3.__A
  0x000012b0 4343554d 5f494249 545f5f20 3136005f CCUM_IBIT__ 16._
  0x000012c0 5f4c4442 4c5f4445 4e4f524d 5f4d494e _LDBL_DENORM_MIN
  0x000012d0 5f5f2034 2e393430 36353634 35383431 __ 4.94065645841
  0x000012e0 32343635 34652d33 32344c00 5f5f464c 24654e-324L.__FL
  0x000012f0 5436345f 4d41585f 31305f45 58505f5f T64_MAX_10_EXP__
  0x00001300 20333038 005f5f53 41434355 4d5f4942  308.__SACCUM_IB
  0x00001310 49545f5f 2038005f 5f53495a 454f465f IT__ 8.__SIZEOF_
  0x00001320 50545244 4946465f 545f5f20 34005f5f PTRDIFF_T__ 4.__
  0x00001330 53465241 43545f4d 494e5f5f 20282d30 SFRACT_MIN__ (-0
  0x00001340 2e354852 2d302e35 48522900 5f5f5553 .5HR-0.5HR).__US
  0x00001350 415f4942 49545f5f 20313600 55494e54 A_IBIT__ 16.UINT
  0x00001360 31365f4d 41582028 5f5f5549 4e543136 16_MAX (__UINT16
  0x00001370 5f4d4158 5f5f2900 5f5f5f69 6e743634 _MAX__).___int64
  0x00001380 5f745f64 6566696e 65642031 00736967 _t_defined 1.sig
  0x00001390 6e656400 494e5431 365f4328 7829205f ned.INT16_C(x) _
  0x000013a0 5f494e54 31365f43 28782900 5f535444 _INT16_C(x)._STD
  0x000013b0 494e545f 4820005f 504f5349 585f435f INT_H ._POSIX_C_
  0x000013c0 534f5552 43452032 30303830 394c005f SOURCE 200809L._
  0x000013d0 5f53495a 454f465f 464c4f41 545f5f20 _SIZEOF_FLOAT__ 
  0x000013e0 34005f5f 55534143 43554d5f 4d41585f 4.__USACCUM_MAX_
  0x000013f0 5f203058 46464646 502d3855 484b005f _ 0XFFFFP-8UHK._
  0x00001400 5f55494e 5433325f 43286329 20632023 _UINT32_C(c) c #
  0x00001410 2320554c 005f5f55 44415f46 4249545f # UL.__UDA_FBIT_
  0x00001420 5f203332 00494e54 5f464153 5433325f _ 32.INT_FAST32_
  0x00001430 4d494e20 282d5f5f 494e545f 46415354 MIN (-__INT_FAST
  0x00001440 33325f4d 41585f5f 202d2031 29005f5f 32_MAX__ - 1).__
  0x00001450 41524d5f 46454154 5552455f 554e414c ARM_FEATURE_UNAL
  0x00001460 49474e45 44005f5f 696e7436 345f745f IGNED.__int64_t_
  0x00001470 64656669 6e656420 3100494e 545f4c45 defined 1.INT_LE
  0x00001480 41535433 325f4d41 5820285f 5f494e54 AST32_MAX (__INT
  0x00001490 5f4c4541 53543332 5f4d4158 5f5f2900 _LEAST32_MAX__).
  0x000014a0 5f5f4441 5f494249 545f5f20 3332005f __DA_IBIT__ 32._
  0x000014b0 5f424947 47455354 5f414c49 474e4d45 _BIGGEST_ALIGNME
  0x000014c0 4e545f5f 2038005f 5f4c4143 43554d5f NT__ 8.__LACCUM_
  0x000014d0 49424954 5f5f2033 32005f53 59535f5f IBIT__ 32._SYS__
  0x000014e0 53544449 4e545f48 20005f5f 55534652 STDINT_H .__USFR
  0x000014f0 4143545f 4d41585f 5f203058 4646502d ACT_MAX__ 0XFFP-
  0x00001500 38554852 005f5f55 494e545f 46415354 8UHR.__UINT_FAST
  0x00001510 385f4d41 585f5f20 30786666 66666666 8_MAX__ 0xffffff
  0x00001520 66665500 5f5f4f52 4445525f 4c495454 ffU.__ORDER_LITT
  0x00001530 4c455f45 4e444941 4e5f5f20 31323334 LE_ENDIAN__ 1234
  0x00001540 005f5f48 4156455f 53504543 554c4154 .__HAVE_SPECULAT
  0x00001550 494f4e5f 53414645 5f56414c 55452031 ION_SAFE_VALUE 1
  0x00001560 005f5f4c 4c414343 554d5f4d 494e5f5f .__LLACCUM_MIN__
  0x00001570 20282d30 58315033 314c4c4b 2d305831  (-0X1P31LLK-0X1
  0x00001580 5033314c 4c4b2900 5f5f4c45 41535431 P31LLK).__LEAST1
  0x00001590 36202268 22005f5f 53415f46 4249545f 6 "h".__SA_FBIT_
  0x000015a0 5f203135 005f5f46 4c543634 5f4d494e _ 15.__FLT64_MIN
  0x000015b0 5f31305f 4558505f 5f20282d 33303729 _10_EXP__ (-307)
  0x000015c0 00756e73 69676e65 64005f5f 41524d5f .unsigned.__ARM_
  0x000015d0 46454154 5552455f 4254495f 44454641 FEATURE_BTI_DEFA
  0x000015e0 554c5400 5f444546 41554c54 5f534f55 ULT._DEFAULT_SOU
  0x000015f0 52434520 31005f5f 53414343 554d5f45 RCE 1.__SACCUM_E
  0x00001600 5053494c 4f4e5f5f 20307831 502d3748 PSILON__ 0x1P-7H
  0x00001610 4b005f5f 41524d5f 46454154 5552455f K.__ARM_FEATURE_
  0x00001620 5041435f 44454641 554c5400 5f5f494e PAC_DEFAULT.__IN
  0x00001630 545f4641 53543136 5f545950 455f5f20 T_FAST16_TYPE__ 
  0x00001640 696e7400 5f5f474e 555f5649 5349424c int.__GNU_VISIBL
  0x00001650 45203000 5f5f464c 5433325f 44454349 E 0.__FLT32_DECI
  0x00001660 4d414c5f 4449475f 5f203900 5f5f5549 MAL_DIG__ 9.__UI
  0x00001670 4e543136 5f545950 455f5f20 73686f72 NT16_TYPE__ shor
  0x00001680 7420756e 7369676e 65642069 6e74005f t unsigned int._
  0x00001690 5f574348 41525f57 49445448 5f5f2033 _WCHAR_WIDTH__ 3
  0x000016a0 32005f5f 474e5543 5f535444 435f494e 2.__GNUC_STDC_IN
  0x000016b0 4c494e45 5f5f2031 005f5f55 48515f49 LINE__ 1.__UHQ_I
  0x000016c0 4249545f 5f203000 5f5f5546 52414354 BIT__ 0.__UFRACT
  0x000016d0 5f464249 545f5f20 31360049 4e545f4c _FBIT__ 16.INT_L
  0x000016e0 45415354 31365f4d 494e2028 2d5f5f49 EAST16_MIN (-__I
  0x000016f0 4e545f4c 45415354 31365f4d 41585f5f NT_LEAST16_MAX__
  0x00001700 202d2031 29005f5f 4c4f4e47 5f4c4f4e  - 1).__LONG_LON
  0x00001710 475f4d41 585f5f20 30783766 66666666 G_MAX__ 0x7fffff
  0x00001720 66666666 66666666 66664c4c 005f5f46 ffffffffffLL.__F
  0x00001730 41535436 3420226c 6c22005f 5f494e54 AST64 "ll".__INT
  0x00001740 36345f54 5950455f 5f206c6f 6e67206c 64_TYPE__ long l
  0x00001750 6f6e6720 696e7400 5f5f464c 545f4d41 ong int.__FLT_MA
  0x00001760 585f3130 5f455850 5f5f2033 38005f5f X_10_EXP__ 38.__
  0x00001770 46415354 31362000 5f5f4c4c 41434355 FAST16 .__LLACCU
  0x00001780 4d5f4d41 585f5f20 30583746 46464646 M_MAX__ 0X7FFFFF
  0x00001790 46464646 46464646 4646502d 33314c4c FFFFFFFFFFP-31LL
  0x000017a0 4b005f5f 4c4c4143 43554d5f 45505349 K.__LLACCUM_EPSI
  0x000017b0 4c4f4e5f 5f203078 31502d33 314c4c4b LON__ 0x1P-31LLK
  0x000017c0 005f5f46 4c543332 585f4d41 4e545f44 .__FLT32X_MANT_D
  0x000017d0 49475f5f 20353300 5f5f4e4f 5f494e4c IG__ 53.__NO_INL
  0x000017e0 494e455f 5f203100 5f5f4152 4d5f4645 INE__ 1.__ARM_FE
  0x000017f0 41545552 455f434f 50524f43 005f5f55 ATURE_COPROC.__U
  0x00001800 4c465241 43545f4d 494e5f5f 20302e30 LFRACT_MIN__ 0.0
  0x00001810 554c5200 5f5f464c 545f4d41 4e545f44 ULR.__FLT_MANT_D
  0x00001820 49475f5f 20323400 5f5f4152 4d5f4152 IG__ 24.__ARM_AR
  0x00001830 4348005f 5f464c54 36345f44 4543494d CH.__FLT64_DECIM
  0x00001840 414c5f44 49475f5f 20313700 5f5f5245 AL_DIG__ 17.__RE
  0x00001850 47495354 45525f50 52454649 585f5f20 GISTER_PREFIX__ 
  0x00001860 005f5f46 4c543332 5f4d494e 5f455850 .__FLT32_MIN_EXP
  0x00001870 5f5f2028 2d313235 29005f5f 55414343 __ (-125).__UACC
  0x00001880 554d5f49 4249545f 5f203136 005f5f55 UM_IBIT__ 16.__U
  0x00001890 494e545f 46415354 31365f4d 41585f5f INT_FAST16_MAX__
  0x000018a0 20307866 66666666 66666655 005f5f55  0xffffffffU.__U
  0x000018b0 494e545f 46415354 31365f54 5950455f INT_FAST16_TYPE_
  0x000018c0 5f20756e 7369676e 65642069 6e74005f _ unsigned int._
  0x000018d0 5f464c54 33325f4d 41585f45 58505f5f _FLT32_MAX_EXP__
  0x000018e0 20313238 005f5f44 424c5f4d 494e5f31  128.__DBL_MIN_1
  0x000018f0 305f4558 505f5f20 282d3330 3729005f 0_EXP__ (-307)._
  0x00001900 5f555341 4343554d 5f494249 545f5f20 _USACCUM_IBIT__ 
  0x00001910 38005f5f 4e45574c 49425f50 41544348 8.__NEWLIB_PATCH
  0x00001920 4c455645 4c5f5f20 30005f5f 5448554d LEVEL__ 0.__THUM
  0x00001930 425f494e 54455257 4f524b5f 5f203100 B_INTERWORK__ 1.
  0x00001940 5f5f464c 5433325f 4449475f 5f203600 __FLT32_DIG__ 6.
  0x00001950 5f5f4758 585f4142 495f5645 5253494f __GXX_ABI_VERSIO
  0x00001960 4e203130 3138005f 5f464c54 36345f48 N 1018.__FLT64_H
  0x00001970 41535f44 454e4f52 4d5f5f20 31005f5f AS_DENORM__ 1.__
  0x00001980 5f696e74 5f6c6561 73743634 5f745f64 _int_least64_t_d
  0x00001990 6566696e 65642031 005f5f46 4c545f45 efined 1.__FLT_E
  0x000019a0 56414c5f 4d455448 4f445f5f 2030005f VAL_METHOD__ 0._
  0x000019b0 5f464c54 3332585f 4841535f 44454e4f _FLT32X_HAS_DENO
  0x000019c0 524d5f5f 2031005f 494e5450 54525f45 RM__ 1._INTPTR_E
  0x000019d0 515f494e 5420005f 5f494e54 5f4c4541 Q_INT .__INT_LEA
  0x000019e0 53543634 5f4d4158 5f5f2030 78376666 ST64_MAX__ 0x7ff
  0x000019f0 66666666 66666666 66666666 664c4c00 fffffffffffffLL.
  0x00001a00 494e5433 325f4d49 4e20282d 5f5f494e INT32_MIN (-__IN
  0x00001a10 5433325f 4d41585f 5f202d20 3129005f T32_MAX__ - 1)._
  0x00001a20 5f414343 554d5f46 4249545f 5f203135 _ACCUM_FBIT__ 15
  0x00001a30 005f5f47 43435f41 544f4d49 435f5743 .__GCC_ATOMIC_WC
  0x00001a40 4841525f 545f4c4f 434b5f46 52454520 HAR_T_LOCK_FREE 
  0x00001a50 31005f5f 554c4143 43554d5f 49424954 1.__ULACCUM_IBIT
  0x00001a60 5f5f2033 32005743 4841525f 4d415820 __ 32.WCHAR_MAX 
  0x00001a70 285f5f57 43484152 5f4d4158 5f5f2900 (__WCHAR_MAX__).
  0x00001a80 5f5f4c4c 46524143 545f4642 49545f5f __LLFRACT_FBIT__
  0x00001a90 20363300 5f5f494e 545f4c45 41535438  63.__INT_LEAST8
  0x00001aa0 5f574944 54485f5f 2038005f 5f555341 _WIDTH__ 8.__USA
  0x00001ab0 5f464249 545f5f20 3136005f 5f55494e _FBIT__ 16.__UIN
  0x00001ac0 54385f4d 41585f5f 20307866 66005f5f T8_MAX__ 0xff.__
  0x00001ad0 41524d5f 46454154 5552455f 49444956 ARM_FEATURE_IDIV
  0x00001ae0 005f5f55 494e5431 365f4d41 585f5f20 .__UINT16_MAX__ 
  0x00001af0 30786666 66660049 4e545f4c 45415354 0xffff.INT_LEAST
  0x00001b00 33325f4d 494e2028 2d5f5f49 4e545f4c 32_MIN (-__INT_L
  0x00001b10 45415354 33325f4d 41585f5f 202d2031 EAST32_MAX__ - 1
  0x00001b20 29005549 4e543634 5f4d4158 20285f5f ).UINT64_MAX (__
  0x00001b30 55494e54 36345f4d 41585f5f 29005f5f UINT64_MAX__).__
  0x00001b40 41524d5f 46454154 5552455f 464d4100 ARM_FEATURE_FMA.
  0x00001b50 5f5f5541 4343554d 5f464249 545f5f20 __UACCUM_FBIT__ 
  0x00001b60 3136005f 5f5f696e 745f6c65 61737431 16.___int_least1
  0x00001b70 365f745f 64656669 6e656420 31005f5f 6_t_defined 1.__
  0x00001b80 5554415f 46424954 5f5f2036 34005f5f UTA_FBIT__ 64.__
  0x00001b90 494e544d 41585f57 49445448 5f5f2036 INTMAX_WIDTH__ 6
  0x00001ba0 34005f5f 41524d5f 46454154 5552455f 4.__ARM_FEATURE_
  0x00001bb0 43444500 5f5f4442 4c5f4953 5f494543 CDE.__DBL_IS_IEC
  0x00001bc0 5f363035 35395f5f 20310055 494e545f _60559__ 1.UINT_
  0x00001bd0 4c454153 54385f4d 41582028 5f5f5549 LEAST8_MAX (__UI
  0x00001be0 4e545f4c 45415354 385f4d41 585f5f29 NT_LEAST8_MAX__)
  0x00001bf0 005f5f49 4e545f4c 45415354 31365f54 .__INT_LEAST16_T
  0x00001c00 5950455f 5f207368 6f727420 696e7400 YPE__ short int.
  0x00001c10 5f5f464c 5436345f 4841535f 51554945 __FLT64_HAS_QUIE
  0x00001c20 545f4e41 4e5f5f20 31005f5f 4c465241 T_NAN__ 1.__LFRA
  0x00001c30 43545f46 4249545f 5f203331 005f5f4c CT_FBIT__ 31.__L
  0x00001c40 45415354 33322022 6c22005f 5f44424c EAST32 "l".__DBL
  0x00001c50 5f444947 5f5f2031 35005f5f 5f696e74 _DIG__ 15.___int
  0x00001c60 5f6c6561 73743332 5f745f64 6566696e _least32_t_defin
  0x00001c70 65642031 005f5f41 524d454c 5f5f2031 ed 1.__ARMEL__ 1
  0x00001c80 005f5f41 524d5f41 5243485f 4953415f .__ARM_ARCH_ISA_
  0x00001c90 5448554d 42005f5f 4c414343 554d5f46 THUMB.__LACCUM_F
  0x00001ca0 4249545f 5f203331 005f5f55 54515f49 BIT__ 31.__UTQ_I
  0x00001cb0 4249545f 5f203000 5f5f464c 545f4d49 BIT__ 0.__FLT_MI
  0x00001cc0 4e5f5f20 312e3137 35343934 33353038 N__ 1.1754943508
  0x00001cd0 32323238 3735652d 33384600 55494e54 222875e-38F.UINT
  0x00001ce0 4d41585f 4d415820 285f5f55 494e544d MAX_MAX (__UINTM
  0x00001cf0 41585f4d 41585f5f 29005f5f 464c5433 AX_MAX__).__FLT3
  0x00001d00 32585f44 49475f5f 20313500 5f5f4143 2X_DIG__ 15.__AC
  0x00001d10 43554d5f 45505349 4c4f4e5f 5f203078 CUM_EPSILON__ 0x
  0x00001d20 31502d31 354b0049 4e543136 5f4d4158 1P-15K.INT16_MAX
  0x00001d30 20285f5f 494e5431 365f4d41 585f5f29  (__INT16_MAX__)
  0x00001d40 005f5f55 44515f46 4249545f 5f203634 .__UDQ_FBIT__ 64
  0x00001d50 005f5f49 4e545f46 41535431 365f4d41 .__INT_FAST16_MA
  0x00001d60 585f5f20 30783766 66666666 6666005f X__ 0x7fffffff._
  0x00001d70 5f48415f 49424954 5f5f2038 005f5f41 _HA_IBIT__ 8.__A
  0x00001d80 524d5f41 5243485f 4953415f 5448554d RM_ARCH_ISA_THUM
  0x00001d90 42203100 55494e54 31365f43 28782920 B 1.UINT16_C(x) 
  0x00001da0 5f5f5549 4e543136 5f432878 29005f5f __UINT16_C(x).__
  0x00001db0 5554515f 46424954 5f5f2031 3238006c UTQ_FBIT__ 128.l
  0x00001dc0 6f6e6720 6c6f6e67 20696e74 005f5f43 ong long int.__C
  0x00001dd0 4841525f 4249545f 5f203800 5f5f464c HAR_BIT__ 8.__FL
  0x00001de0 54333258 5f49535f 4945435f 36303535 T32X_IS_IEC_6055
  0x00001df0 395f5f20 31005f5f 41524d5f 4650005f 9__ 1.__ARM_FP._
  0x00001e00 5f696e74 5f6c6561 73743634 5f745f64 _int_least64_t_d
  0x00001e10 6566696e 65642031 005f5f49 4e545054 efined 1.__INTPT
  0x00001e20 525f5749 4454485f 5f203332 005f5f55 R_WIDTH__ 32.__U
  0x00001e30 494e545f 4c454153 54385f54 5950455f INT_LEAST8_TYPE_
  0x00001e40 5f20756e 7369676e 65642063 68617200 _ unsigned char.
  0x00001e50 5f5f4c44 424c5f4d 41585f5f 20312e37 __LDBL_MAX__ 1.7
  0x00001e60 39373639 33313334 38363233 31353765 976931348623157e
  0x00001e70 2b333038 4c005f5f 46494e49 54455f4d +308L.__FINITE_M
  0x00001e80 4154485f 4f4e4c59 5f5f2030 005f5f53 ATH_ONLY__ 0.__S
  0x00001e90 41434355 4d5f4d41 585f5f20 30583746 ACCUM_MAX__ 0X7F
  0x00001ea0 4646502d 37484b00 5f5f6172 6d5f5f20 FFP-7HK.__arm__ 
  0x00001eb0 31005f4e 45574c49 425f5645 5253494f 1._NEWLIB_VERSIO
  0x00001ec0 4e202234 2e342e30 22005f5f 4c44424c N "4.4.0".__LDBL
  0x00001ed0 5f4d414e 545f4449 475f5f20 3533005f _MANT_DIG__ 53._
  0x00001ee0 5f54515f 49424954 5f5f2030 005f5f55 _TQ_IBIT__ 0.__U
  0x00001ef0 48415f46 4249545f 5f203800 5f5f5356 HA_FBIT__ 8.__SV
  0x00001f00 49445f56 49534942 4c452031 005f5f47 ID_VISIBLE 1.__G
  0x00001f10 43435f41 534d5f46 4c41475f 4f555450 CC_ASM_FLAG_OUTP
  0x00001f20 5554535f 5f203100 5f5f4152 4d5f4152 UTS__ 1.__ARM_AR
  0x00001f30 43485f34 545f5f20 3100494e 545f4641 CH_4T__ 1.INT_FA
  0x00001f40 53543136 5f4d4158 20285f5f 494e545f ST16_MAX (__INT_
  0x00001f50 46415354 31365f4d 41585f5f 29005f5f FAST16_MAX__).__
  0x00001f60 454c465f 5f203100 5f5f4152 4d5f4152 ELF__ 1.__ARM_AR
  0x00001f70 43485f50 524f4649 4c45005f 5f544855 CH_PROFILE.__THU
  0x00001f80 4d42454c 5f5f005f 5f494e54 31365f43 MBEL__.__INT16_C
  0x00001f90 28632920 63005f5f 4743435f 48415645 (c) c.__GCC_HAVE
  0x00001fa0 5f445741 5246325f 4346495f 41534d20 _DWARF2_CFI_ASM 
  0x00001fb0 31005f5f 55494e54 36345f4d 41585f5f 1.__UINT64_MAX__
  0x00001fc0 20307866 66666666 66666666 66666666  0xfffffffffffff
  0x00001fd0 66666655 4c4c005f 5f4c4143 43554d5f fffULL.__LACCUM_
  0x00001fe0 4d41585f 5f203058 37464646 46464646 MAX__ 0X7FFFFFFF
  0x00001ff0 46464646 46464646 502d3331 4c4b005f FFFFFFFFP-31LK._
  0x00002000 5f494e54 5f464153 5433325f 4d41585f _INT_FAST32_MAX_
  0x00002010 5f203078 37666666 66666666 005f5f55 _ 0x7fffffff.__U
  0x00002020 53465241 43545f45 5053494c 4f4e5f5f SFRACT_EPSILON__
  0x00002030 20307831 502d3855 4852005f 5f41544f  0x1P-8UHR.__ATO
  0x00002040 4d49435f 41435155 49524520 32005f5f MIC_ACQUIRE 2.__
  0x00002050 696e745f 6c656173 7431365f 745f6465 int_least16_t_de
  0x00002060 66696e65 64203100 50545244 4946465f fined 1.PTRDIFF_
  0x00002070 4d415820 285f5f50 54524449 46465f4d MAX (__PTRDIFF_M
  0x00002080 41585f5f 29005f55 494e544d 41585f54 AX__)._UINTMAX_T
  0x00002090 5f444543 4c415245 44200047 4e552043 _DECLARED .GNU C
  0x000020a0 31372031 332e332e 31203230 32343036 17 13.3.1 202406
  0x000020b0 3134202d 6d637075 3d61726d 3774646d 14 -mcpu=arm7tdm
  0x000020c0 69202d6d 666c6f61 742d6162 693d736f i -mfloat-abi=so
  0x000020d0 6674202d 6d61726d 202d6d61 7263683d ft -marm -march=
  0x000020e0 61726d76 3474202d 6733202d 67647761 armv4t -g3 -gdwa
  0x000020f0 72662d32 005f5f69 6e745f66 61737433 rf-2.__int_fast3
  0x00002100 325f745f 64656669 6e656420 31005f5f 2_t_defined 1.__
  0x00002110 53544443 5f5f2031 005f5f53 495a454f STDC__ 1.__SIZEO
  0x00002120 465f4c4f 4e475f5f 2034005f 5f696e74 F_LONG__ 4.__int
  0x00002130 3230202b 32005f5f 44424c5f 4d41585f 20 +2.__DBL_MAX_
  0x00002140 4558505f 5f203130 3234005f 44454641 EXP__ 1024._DEFA
  0x00002150 554c545f 534f5552 4345005f 5f41544f ULT_SOURCE.__ATO
  0x00002160 4d49435f 434f4e53 554d4520 31005f5f MIC_CONSUME 1.__
  0x00002170 696e7433 325f745f 64656669 6e656420 int32_t_defined 
  0x00002180 31005f5f 696e745f 6c656173 7433325f 1.__int_least32_
  0x00002190 745f6465 66696e65 64203100 5f5f494e t_defined 1.__IN
  0x000021a0 545f4641 53543332 5f574944 54485f5f T_FAST32_WIDTH__
  0x000021b0 20333200 5f5f4152 4d5f4246 31365f46  32.__ARM_BF16_F
  0x000021c0 4f524d41 545f414c 5445524e 41544956 ORMAT_ALTERNATIV
  0x000021d0 4500494e 545f4641 53543136 5f4d494e E.INT_FAST16_MIN
  0x000021e0 20282d5f 5f494e54 5f464153 5431365f  (-__INT_FAST16_
  0x000021f0 4d41585f 5f202d20 3129005f 5f57494e MAX__ - 1).__WIN
  0x00002200 545f5459 50455f5f 20756e73 69676e65 T_TYPE__ unsigne
  0x00002210 6420696e 74005f5f 4c4f4e47 5f4d4158 d int.__LONG_MAX
  0x00002220 5f5f2030 78376666 66666666 664c005f __ 0x7fffffffL._
  0x00002230 5f494e54 31365f4d 41585f5f 20307837 _INT16_MAX__ 0x7
  0x00002240 66666600 5f5f554c 46524143 545f4642 fff.__ULFRACT_FB
  0x00002250 49545f5f 20333200 5f5f5343 4841525f IT__ 32.__SCHAR_
  0x00002260 57494454 485f5f20 38005f5f 41434355 WIDTH__ 8.__ACCU
  0x00002270 4d5f4d49 4e5f5f20 282d3058 31503135 M_MIN__ (-0X1P15
  0x00002280 4b2d3058 31503135 4b29005f 5f53495a K-0X1P15K).__SIZ
  0x00002290 454f465f 444f5542 4c455f5f 2038005f EOF_DOUBLE__ 8._
  0x000022a0 5f474e55 435f5041 5443484c 4556454c _GNUC_PATCHLEVEL
  0x000022b0 5f5f2031 00494e54 36345f4d 494e2028 __ 1.INT64_MIN (
  0x000022c0 2d5f5f49 4e543634 5f4d4158 5f5f202d -__INT64_MAX__ -
  0x000022d0 20312900 5f5f4758 585f5459 5045494e  1).__GXX_TYPEIN
  0x000022e0 464f5f45 5155414c 4954595f 494e4c49 FO_EQUALITY_INLI
  0x000022f0 4e452030 005f5f41 524d5f41 5243485f NE 0.__ARM_ARCH_
  0x00002300 4558545f 49444956 5f5f005f 5f465241 EXT_IDIV__.__FRA
  0x00002310 43545f4d 41585f5f 20305837 46464650 CT_MAX__ 0X7FFFP
  0x00002320 2d313552 005f5f57 494e545f 4d494e5f -15R.__WINT_MIN_
  0x00002330 5f203055 005f5f55 4c414343 554d5f46 _ 0U.__ULACCUM_F
  0x00002340 4249545f 5f203332 005f5f46 4c545f4e BIT__ 32.__FLT_N
  0x00002350 4f524d5f 4d41585f 5f20332e 34303238 ORM_MAX__ 3.4028
  0x00002360 32333436 36333835 32383836 652b3338 234663852886e+38
  0x00002370 46005f5f 55465241 43545f4d 494e5f5f F.__UFRACT_MIN__
  0x00002380 20302e30 5552005f 5f494e54 38202268  0.0UR.__INT8 "h
  0x00002390 6822005f 5f41524d 5f4e454f 4e5f4650 h".__ARM_NEON_FP
  0x000023a0 005f494e 5431365f 545f4445 434c4152 ._INT16_T_DECLAR
  0x000023b0 45442000 5f5f5354 44435f55 54465f31 ED .__STDC_UTF_1
  0x000023c0 365f5f20 31005f5f 554c4c41 4343554d 6__ 1.__ULLACCUM
  0x000023d0 5f494249 545f5f20 33320055 494e5433 _IBIT__ 32.UINT3
  0x000023e0 325f4328 7829205f 5f55494e 5433325f 2_C(x) __UINT32_
  0x000023f0 43287829 005f5f46 52414354 5f494249 C(x).__FRACT_IBI
  0x00002400 545f5f20 30005f5f 4c44424c 5f4d494e T__ 0.__LDBL_MIN
  0x00002410 5f5f2032 2e323235 30373338 35383530 __ 2.22507385850
  0x00002420 37323031 34652d33 30384c00 5f5f4c44 72014e-308L.__LD
  0x00002430 424c5f48 41535f49 4e46494e 4954595f BL_HAS_INFINITY_
  0x00002440 5f203100 5f5f4743 435f4945 435f3535 _ 1.__GCC_IEC_55
  0x00002450 395f434f 4d504c45 58203000 5f5f5549 9_COMPLEX 0.__UI
  0x00002460 4e543332 5f4d4158 5f5f2030 78666666 NT32_MAX__ 0xfff
  0x00002470 66666666 66554c00 5f5f4c44 424c5f4d fffffUL.__LDBL_M
  0x00002480 494e5f45 58505f5f 20282d31 30323129 IN_EXP__ (-1021)
  0x00002490 005f5f55 4c4c4652 4143545f 46424954 .__ULLFRACT_FBIT
  0x000024a0 5f5f2036 34005f5f 53495a45 4f465f57 __ 64.__SIZEOF_W
  0x000024b0 43484152 5f545f5f 2034005f 5f41524d CHAR_T__ 4.__ARM
  0x000024c0 5f415243 485f4953 415f4152 4d203100 _ARCH_ISA_ARM 1.
  0x000024d0 5352414d 5f424153 45203078 32303030 SRAM_BASE 0x2000
  0x000024e0 30303030 005f5f46 4c4f4154 5f574f52 0000.__FLOAT_WOR
  0x000024f0 445f4f52 4445525f 5f205f5f 4f524445 D_ORDER__ __ORDE
  0x00002500 525f4c49 54544c45 5f454e44 49414e5f R_LITTLE_ENDIAN_
  0x00002510 5f005f5f 41434355 4d5f4d41 585f5f20 _.__ACCUM_MAX__ 
  0x00002520 30583746 46464646 4646502d 31354b00 0X7FFFFFFFP-15K.
  0x00002530 5f5f5349 5a455f57 49445448 5f5f2033 __SIZE_WIDTH__ 3
  0x00002540 32005f5f 41524d5f 46454154 5552455f 2.__ARM_FEATURE_
  0x00002550 4d564500 5f5f4c45 41535438 20226868 MVE.__LEAST8 "hh
  0x00002560 22005f5f 5349475f 41544f4d 49435f4d ".__SIG_ATOMIC_M
  0x00002570 494e5f5f 20282d5f 5f534947 5f41544f IN__ (-__SIG_ATO
  0x00002580 4d49435f 4d41585f 5f202d20 3129005f MIC_MAX__ - 1)._
  0x00002590 5f4c4c46 52414354 5f455053 494c4f4e _LLFRACT_EPSILON
  0x000025a0 5f5f2030 7831502d 36334c4c 52005f5f __ 0x1P-63LLR.__
  0x000025b0 4c4f4e47 5f574944 54485f5f 20333200 LONG_WIDTH__ 32.
  0x000025c0 5f5f5346 52414354 5f464249 545f5f20 __SFRACT_FBIT__ 
  0x000025d0 37005f5f 43484152 33325f54 5950455f 7.__CHAR32_TYPE_
  0x000025e0 5f206c6f 6e672075 6e736967 6e656420 _ long unsigned 
  0x000025f0 696e7400 5f5f5346 52414354 5f494249 int.__SFRACT_IBI
  0x00002600 545f5f20 30005f5f 41524d5f 46454154 T__ 0.__ARM_FEAT
  0x00002610 5552455f 53415400 5f5f4152 4d5f5043 URE_SAT.__ARM_PC
  0x00002620 53203100 5f5f4851 5f494249 545f5f20 S 1.__HQ_IBIT__ 
  0x00002630 30005f5f 696e745f 66617374 31365f74 0.__int_fast16_t
  0x00002640 5f646566 696e6564 2031005f 41544649 _defined 1._ATFI
  0x00002650 4c455f53 4f555243 45203100 5f5f5553 LE_SOURCE 1.__US
  0x00002660 45525f4c 4142454c 5f505245 4649585f ER_LABEL_PREFIX_
  0x00002670 5f20005f 5f464c54 5f44454e 4f524d5f _ .__FLT_DENORM_
  0x00002680 4d494e5f 5f20312e 34303132 39383436 MIN__ 1.40129846
  0x00002690 34333234 38313731 652d3435 46005f5f 43248171e-45F.__
  0x000026a0 55494e54 5f4c4541 53543332 5f545950 UINT_LEAST32_TYP
  0x000026b0 455f5f20 6c6f6e67 20756e73 69676e65 E__ long unsigne
  0x000026c0 6420696e 74005f5f 44515f46 4249545f d int.__DQ_FBIT_
  0x000026d0 5f203633 005f5f55 48415f49 4249545f _ 63.__UHA_IBIT_
  0x000026e0 5f203800 5f5f696e 7432305f 5f202b32 _ 8.__int20__ +2
  0x000026f0 00494e54 31365f4d 494e2028 2d5f5f49 .INT16_MIN (-__I
  0x00002700 4e543136 5f4d4158 5f5f202d 20312900 NT16_MAX__ - 1).
  0x00002710 5f5f5349 475f4154 4f4d4943 5f574944 __SIG_ATOMIC_WID
  0x00002720 54485f5f 20333200 5f5f4152 4d5f4645 TH__ 32.__ARM_FE
  0x00002730 41545552 455f4246 31365f56 4543544f ATURE_BF16_VECTO
  0x00002740 525f4152 4954484d 45544943 005f5f47 R_ARITHMETIC.__G
  0x00002750 4e55435f 50524552 45515f5f 286d612c NUC_PREREQ__(ma,
  0x00002760 6d692920 5f5f474e 55435f50 52455245 mi) __GNUC_PRERE
  0x00002770 51286d61 2c206d69 29005f5f 46415354 Q(ma, mi).__FAST
  0x00002780 3820005f 5f534852 545f4d41 585f5f20 8 .__SHRT_MAX__ 
  0x00002790 30783766 6666005f 5f41524d 5f465031 0x7fff.__ARM_FP1
  0x000027a0 365f4152 4753005f 5f4f5244 45525f50 6_ARGS.__ORDER_P
  0x000027b0 44505f45 4e444941 4e5f5f20 33343132 DP_ENDIAN__ 3412
  0x000027c0 005f5f53 515f4942 49545f5f 2030005f .__SQ_IBIT__ 0._
  0x000027d0 5f464c54 33325f4e 4f524d5f 4d41585f _FLT32_NORM_MAX_
  0x000027e0 5f20332e 34303238 32333436 36333835 _ 3.402823466385
  0x000027f0 32383836 652b3338 46333200 5f5f464c 2886e+38F32.__FL
  0x00002800 545f4445 43494d41 4c5f4449 475f5f20 T_DECIMAL_DIG__ 
  0x00002810 39005f5f 494e5433 325f4d41 585f5f20 9.__INT32_MAX__ 
  0x00002820 30783766 66666666 66664c00 5f5f5749 0x7fffffffL.__WI
  0x00002830 4e545f57 49445448 5f5f2033 32007072 NT_WIDTH__ 32.pr
  0x00002840 696e7400 73686f72 74005f5f 5551515f int.short.__UQQ_
  0x00002850 46424954 5f5f2038 005f5f55 53515f49 FBIT__ 8.__USQ_I
  0x00002860 4249545f 5f203000 5f5f5349 5a454f46 BIT__ 0.__SIZEOF
  0x00002870 5f494e54 5f5f2034 005f5f69 6e743136 _INT__ 4.__int16
  0x00002880 5f745f64 6566696e 65642031 0073686f _t_defined 1.sho
  0x00002890 72742069 6e74005f 5f554652 4143545f rt int.__UFRACT_
  0x000028a0 45505349 4c4f4e5f 5f203078 31502d31 EPSILON__ 0x1P-1
  0x000028b0 36555200 5f4d4143 48494e45 5f5f4445 6UR._MACHINE__DE
  0x000028c0 4641554c 545f5459 5045535f 48200041 FAULT_TYPES_H .A
  0x000028d0 545f4144 44522862 6173652c 6f666629 T_ADDR(base,off)
  0x000028e0 20282a28 75696e74 33325f74 202a2928  (*(uint32_t *)(
  0x000028f0 28626173 6529202b 20286f66 66292929 (base) + (off)))
  0x00002900 005f5f49 4e545f4c 45415354 36345f57 .__INT_LEAST64_W
  0x00002910 49445448 5f5f2036 34005f5f 494e5433 IDTH__ 64.__INT3
  0x00002920 325f5459 50455f5f 206c6f6e 6720696e 2_TYPE__ long in
  0x00002930 74005f5f 464c5433 32585f4d 494e5f31 t.__FLT32X_MIN_1
  0x00002940 305f4558 505f5f20 282d3330 3729005f 0_EXP__ (-307)._
  0x00002950 5f41524d 5f464541 54555245 5f424631 _ARM_FEATURE_BF1
  0x00002960 365f5343 414c4152 5f415249 54484d45 6_SCALAR_ARITHME
  0x00002970 54494300 6c6f6e67 20696e74 00494e54 TIC.long int.INT
  0x00002980 5054525f 4d494e20 282d5f5f 494e5450 PTR_MIN (-__INTP
  0x00002990 54525f4d 41585f5f 202d2031 29005f5f TR_MAX__ - 1).__
  0x000029a0 7468756d 62325f5f 005f5f4c 44424c5f thumb2__.__LDBL_
  0x000029b0 4d41585f 4558505f 5f203130 3234005f MAX_EXP__ 1024._
  0x000029c0 5f53515f 46424954 5f5f2033 31005f5f _SQ_FBIT__ 31.__
  0x000029d0 45585028 7829205f 5f202323 78202323 EXP(x) __ ##x ##
  0x000029e0 5f5f005f 5f4c4652 4143545f 4d494e5f __.__LFRACT_MIN_
  0x000029f0 5f20282d 302e354c 522d302e 354c5229 _ (-0.5LR-0.5LR)
  0x00002a00 005f5f57 43484152 5f4d494e 5f5f2030 .__WCHAR_MIN__ 0
  0x00002a10 55005f5f 464c5436 345f4d41 585f5f20 U.__FLT64_MAX__ 
  0x00002a20 312e3739 37363933 31333438 36323331 1.79769313486231
  0x00002a30 3537652b 33303846 36340073 72632f30 57e+308F64.src/0
  0x00002a40 375f745f 6269742e 63005f5f 494e5433 7_t_bit.c.__INT3
  0x00002a50 3220226c 22005f5f 55494e54 5f4c4541 2 "l".__UINT_LEA
  0x00002a60 53543332 5f4d4158 5f5f2030 78666666 ST32_MAX__ 0xfff
  0x00002a70 66666666 66554c00 5f5f4743 435f4445 fffffUL.__GCC_DE
  0x00002a80 53545255 43544956 455f5349 5a452036 STRUCTIVE_SIZE 6
  0x00002a90 34005f5f 696e7432 305f5f00 5f5f7468 4.__int20__.__th
  0x00002aa0 756d625f 5f005f5f 4c44424c 5f484153 umb__.__LDBL_HAS
  0x00002ab0 5f515549 45545f4e 414e5f5f 2031005f _QUIET_NAN__ 1._
  0x00002ac0 5f494e54 385f5459 50455f5f 20736967 _INT8_TYPE__ sig
  0x00002ad0 6e656420 63686172 005f5f57 494e545f ned char.__WINT_
  0x00002ae0 4d41585f 5f203078 66666666 66666666 MAX__ 0xffffffff
  0x00002af0 55005749 4e545f4d 494e2028 5f5f5749 U.WINT_MIN (__WI
  0x00002b00 4e545f4d 494e5f5f 2900494e 5433325f NT_MIN__).INT32_
  0x00002b10 4d415820 285f5f49 4e543332 5f4d4158 MAX (__INT32_MAX
  0x00002b20 5f5f2900 5f5f494e 54363420 226c6c22 __).__INT64 "ll"
  0x00002b30 005f5f4c 44424c5f 44454349 4d414c5f .__LDBL_DECIMAL_
  0x00002b40 4449475f 5f203137 005f5f4c 41524745 DIG__ 17.__LARGE
  0x00002b50 46494c45 5f564953 49424c45 20300049 FILE_VISIBLE 0.I
  0x00002b60 4e545f46 41535436 345f4d41 5820285f NT_FAST64_MAX (_
  0x00002b70 5f494e54 5f464153 5436345f 4d41585f _INT_FAST64_MAX_
  0x00002b80 5f29005f 494e5433 325f545f 4445434c _)._INT32_T_DECL
  0x00002b90 41524544 20005f5f 54515f46 4249545f ARED .__TQ_FBIT_
  0x00002ba0 5f203132 37005f5f 5548515f 46424954 _ 127.__UHQ_FBIT
  0x00002bb0 5f5f2031 36005f5f 41524d5f 46454154 __ 16.__ARM_FEAT
  0x00002bc0 5552455f 434f5052 4f432031 0055494e URE_COPROC 1.UIN
  0x00002bd0 54505452 5f4d4158 20285f5f 55494e54 TPTR_MAX (__UINT
  0x00002be0 5054525f 4d41585f 5f29005f 5f55494e PTR_MAX__).__UIN
  0x00002bf0 545f4641 53543634 5f4d4158 5f5f2030 T_FAST64_MAX__ 0
  0x00002c00 78666666 66666666 66666666 66666666 xfffffffffffffff
  0x00002c10 66554c4c 005f5f55 494e545f 46415354 fULL.__UINT_FAST
  0x00002c20 33325f4d 41585f5f 20307866 66666666 32_MAX__ 0xfffff
  0x00002c30 66666655 005f5f49 4e543136 20226822 fffU.__INT16 "h"
  0x00002c40 005f5f55 53465241 43545f46 4249545f .__USFRACT_FBIT_
  0x00002c50 5f203800 5f5f494e 5436345f 43286329 _ 8.__INT64_C(c)
  0x00002c60 20632023 23204c4c 005f5f48 515f4642  c ## LL.__HQ_FB
  0x00002c70 49545f5f 20313500 5f5f5743 4841525f IT__ 15.__WCHAR_
  0x00002c80 4d41585f 5f203078 66666666 66666666 MAX__ 0xffffffff
  0x00002c90 55005f5f 53495a45 4f465f4c 4f4e475f U.__SIZEOF_LONG_
  0x00002ca0 4c4f4e47 5f5f2038 005f5f46 4c543634 LONG__ 8.__FLT64
  0x00002cb0 5f49535f 4945435f 36303535 395f5f20 _IS_IEC_60559__ 
  0x00002cc0 31005f5f 55494e54 385f5459 50455f5f 1.__UINT8_TYPE__
  0x00002cd0 20756e73 69676e65 64206368 6172005f  unsigned char._
  0x00002ce0 5f534852 545f5749 4454485f 5f203136 _SHRT_WIDTH__ 16
  0x00002cf0 00494e54 36345f4d 41582028 5f5f494e .INT64_MAX (__IN
  0x00002d00 5436345f 4d41585f 5f29005f 5f41524d T64_MAX__).__ARM
  0x00002d10 5f464541 54555245 5f414553 005f5f55 _FEATURE_AES.__U
  0x00002d20 494e545f 4c454153 5431365f 4d41585f INT_LEAST16_MAX_
  0x00002d30 5f203078 66666666 005f5f5f 696e7431 _ 0xffff.___int1
  0x00002d40 365f745f 64656669 6e656420 31005f5f 6_t_defined 1.__
  0x00002d50 464c545f 45505349 4c4f4e5f 5f20312e FLT_EPSILON__ 1.
  0x00002d60 31393230 39323839 35353037 38313235 1920928955078125
  0x00002d70 652d3746 0053495a 455f4d41 5820285f e-7F.SIZE_MAX (_
  0x00002d80 5f53495a 455f4d41 585f5f29 005f5f49 _SIZE_MAX__).__I
  0x00002d90 4e545f4c 45415354 36345f54 5950455f NT_LEAST64_TYPE_
  0x00002da0 5f206c6f 6e67206c 6f6e6720 696e7400 _ long long int.
  0x00002db0 55494e54 4d41585f 43287829 205f5f55 UINTMAX_C(x) __U
  0x00002dc0 494e544d 41585f43 28782900 5f5f5549 INTMAX_C(x).__UI
  0x00002dd0 4e543332 5f545950 455f5f20 6c6f6e67 NT32_TYPE__ long
  0x00002de0 20756e73 69676e65 6420696e 74005f5f  unsigned int.__
  0x00002df0 4c44424c 5f4d494e 5f31305f 4558505f LDBL_MIN_10_EXP_
  0x00002e00 5f20282d 33303729 00534947 5f41544f _ (-307).SIG_ATO
  0x00002e10 4d49435f 4d494e20 282d5f5f 53544449 MIC_MIN (-__STDI
  0x00002e20 4e545f45 58502849 4e545f4d 41582920 NT_EXP(INT_MAX) 
  0x00002e30 2d203129 005f5f53 495a454f 465f504f - 1).__SIZEOF_PO
  0x00002e40 494e5445 525f5f20 34005f5f 55414343 INTER__ 4.__UACC
  0x00002e50 554d5f4d 41585f5f 20305846 46464646 UM_MAX__ 0XFFFFF
  0x00002e60 46464650 2d313655 4b005f5f 5646505f FFFP-16UK.__VFP_
  0x00002e70 46505f5f 2031005f 5f554c46 52414354 FP__ 1.__ULFRACT
  0x00002e80 5f4d4158 5f5f2030 58464646 46464646 _MAX__ 0XFFFFFFF
  0x00002e90 46502d33 32554c52 005f5f48 415f4642 FP-32ULR.__HA_FB
  0x00002ea0 49545f5f 2037005f 5f505452 44494646 IT__ 7.__PTRDIFF
  0x00002eb0 5f574944 54485f5f 20333200 5f5f464c _WIDTH__ 32.__FL
  0x00002ec0 5433325f 44454e4f 524d5f4d 494e5f5f T32_DENORM_MIN__
  0x00002ed0 20312e34 30313239 38343634 33323438  1.4012984643248
  0x00002ee0 31373165 2d343546 3332005f 5f49534f 171e-45F32.__ISO
  0x00002ef0 5f435f56 49534942 4c452032 30313100 _C_VISIBLE 2011.
  0x00002f00 5f5f5341 4343554d 5f4d494e 5f5f2028 __SACCUM_MIN__ (
  0x00002f10 2d305831 5037484b 2d305831 5037484b -0X1P7HK-0X1P7HK
  0x00002f20 29005f5f 494e545f 57494454 485f5f20 ).__INT_WIDTH__ 
  0x00002f30 3332005f 5f474343 5f41544f 4d49435f 32.__GCC_ATOMIC_
  0x00002f40 504f494e 5445525f 4c4f434b 5f465245 POINTER_LOCK_FRE
  0x00002f50 45203100 5f5f5549 4e543634 5f432863 E 1.__UINT64_C(c
  0x00002f60 29206320 23232055 4c4c005f 5f4c4143 ) c ## ULL.__LAC
  0x00002f70 43554d5f 45505349 4c4f4e5f 5f203078 CUM_EPSILON__ 0x
  0x00002f80 31502d33 314c4b00 6d61696e 005f5f53 1P-31LK.main.__S
  0x00002f90 46524143 545f4550 53494c4f 4e5f5f20 FRACT_EPSILON__ 
  0x00002fa0 30783150 2d374852 00494e54 5f464153 0x1P-7HR.INT_FAS
  0x00002fb0 5436345f 4d494e20 282d5f5f 494e545f T64_MIN (-__INT_
  0x00002fc0 46415354 36345f4d 41585f5f 202d2031 FAST64_MAX__ - 1
  0x00002fd0 29005f5f 5551515f 49424954 5f5f2030 ).__UQQ_IBIT__ 0
  0x00002fe0 005f5f46 4c543332 585f4d41 585f5f20 .__FLT32X_MAX__ 
  0x00002ff0 312e3739 37363933 31333438 36323331 1.79769313486231
  0x00003000 3537652b 33303846 33327800 5f5f5553 57e+308F32x.__US
  0x00003010 515f4642 49545f5f 20333200 5f5f5354 Q_FBIT__ 32.__ST
  0x00003020 44435f56 45525349 4f4e5f5f 20323031 DC_VERSION__ 201
  0x00003030 3731304c 006c6f6e 6720756e 7369676e 710L.long unsign
  0x00003040 65642069 6e74005f 5f41524d 5f454142 ed int.__ARM_EAB
  0x00003050 495f5f20 31005f5f 4743435f 41544f4d I__ 1.__GCC_ATOM
  0x00003060 49435f43 48415233 325f545f 4c4f434b IC_CHAR32_T_LOCK
  0x00003070 5f465245 45203100 5f5f5f69 6e743332 _FREE 1.___int32
  0x00003080 5f745f64 6566696e 65642031 0055494e _t_defined 1.UIN
  0x00003090 545f4641 53543332 5f4d4158 20285f5f T_FAST32_MAX (__
  0x000030a0 55494e54 5f464153 5433325f 4d41585f UINT_FAST32_MAX_
  0x000030b0 5f29005f 5359535f 5f494e54 5355505f _)._SYS__INTSUP_
  0x000030c0 48200049 4e545f4c 45415354 36345f4d H .INT_LEAST64_M
  0x000030d0 41582028 5f5f494e 545f4c45 41535436 AX (__INT_LEAST6
  0x000030e0 345f4d41 585f5f29 00574348 41525f4d 4_MAX__).WCHAR_M
  0x000030f0 494e2028 5f5f5743 4841525f 4d494e5f IN (__WCHAR_MIN_
  0x00003100 5f29005f 5f465241 43545f45 5053494c _).__FRACT_EPSIL
  0x00003110 4f4e5f5f 20307831 502d3135 52005f5f ON__ 0x1P-15R.__
  0x00003120 53544443 5f484f53 5445445f 5f203100 STDC_HOSTED__ 1.
  0x00003130 5f55494e 54505452 5f545f44 45434c41 _UINTPTR_T_DECLA
  0x00003140 52454420 0055494e 545f4641 5354385f RED .UINT_FAST8_
  0x00003150 4d415820 285f5f55 494e545f 46415354 MAX (__UINT_FAST
  0x00003160 385f4d41 585f5f29 005f5f49 4e545054 8_MAX__).__INTPT
  0x00003170 525f4d41 585f5f20 30783766 66666666 R_MAX__ 0x7fffff
  0x00003180 6666005f 5f505241 474d415f 52454445 ff.__PRAGMA_REDE
  0x00003190 46494e45 5f455854 4e414d45 2031005f FINE_EXTNAME 1._
  0x000031a0 5f534f46 5446505f 5f203100 5f5f5354 _SOFTFP__ 1.__ST
  0x000031b0 44494e54 5f455850 28782920 5f5f2023 DINT_EXP(x) __ #
  0x000031c0 23782023 235f5f00 5f5f464c 5436345f #x ##__.__FLT64_
  0x000031d0 45505349 4c4f4e5f 5f20322e 32323034 EPSILON__ 2.2204
  0x000031e0 34363034 39323530 33313331 652d3136 460492503131e-16
  0x000031f0 46363400 5f494e54 385f545f 4445434c F64._INT8_T_DECL
  0x00003200 41524544 20005f5f 696e745f 6c656173 ARED .__int_leas
  0x00003210 74385f74 5f646566 696e6564 2031005f t8_t_defined 1._
  0x00003220 5f474343 5f41544f 4d49435f 4c4c4f4e _GCC_ATOMIC_LLON
  0x00003230 475f4c4f 434b5f46 52454520 3100494e G_LOCK_FREE 1.IN
  0x00003240 545f4641 5354385f 4d494e20 282d5f5f T_FAST8_MIN (-__
  0x00003250 494e545f 46415354 385f4d41 585f5f20 INT_FAST8_MAX__ 
  0x00003260 2d203129 005f5f46 4c545f4d 41585f45 - 1).__FLT_MAX_E
  0x00003270 58505f5f 20313238 005f5f41 544f4d49 XP__ 128.__ATOMI
  0x00003280 435f4143 515f5245 4c203400 5f5f5549 C_ACQ_REL 4.__UI
  0x00003290 4e545f46 41535436 345f5459 50455f5f NT_FAST64_TYPE__
  0x000032a0 206c6f6e 67206c6f 6e672075 6e736967  long long unsig
  0x000032b0 6e656420 696e7400 756e7369 676e6564 ned int.unsigned
  0x000032c0 20636861 7200494e 54385f4d 41582028  char.INT8_MAX (
  0x000032d0 5f5f494e 54385f4d 41585f5f 29005f5f __INT8_MAX__).__
  0x000032e0 55494e54 4d41585f 54595045 5f5f206c UINTMAX_TYPE__ l
  0x000032f0 6f6e6720 6c6f6e67 20756e73 69676e65 ong long unsigne
  0x00003300 6420696e 74005f5f 75696e74 33325f74 d int.__uint32_t
  0x00003310 005f5f46 4c543332 585f4e4f 524d5f4d .__FLT32X_NORM_M
  0x00003320 41585f5f 20312e37 39373639 33313334 AX__ 1.797693134
  0x00003330 38363233 31353765 2b333038 46333278 8623157e+308F32x
  0x00003340 005f5f4c 44424c5f 45505349 4c4f4e5f .__LDBL_EPSILON_
  0x00003350 5f20322e 32323034 34363034 39323530 _ 2.220446049250
  0x00003360 33313331 652d3136 4c005f5f 494e5450 3131e-16L.__INTP
  0x00003370 54525f54 5950455f 5f20696e 74005f5f TR_TYPE__ int.__
  0x00003380 4445435f 4556414c 5f4d4554 484f445f DEC_EVAL_METHOD_
  0x00003390 5f203200 5f5f5553 41434355 4d5f4d49 _ 2.__USACCUM_MI
  0x000033a0 4e5f5f20 302e3055 484b0055 494e545f N__ 0.0UHK.UINT_
  0x000033b0 46415354 36345f4d 41582028 5f5f5549 FAST64_MAX (__UI
  0x000033c0 4e545f46 41535436 345f4d41 585f5f29 NT_FAST64_MAX__)
  0x000033d0 005f5f55 53465241 43545f49 4249545f .__USFRACT_IBIT_
  0x000033e0 5f203000 5f5f494e 545f4c45 41535433 _ 0.__INT_LEAST3
  0x000033f0 325f5749 4454485f 5f203332 005f5f41 2_WIDTH__ 32.__A
  0x00003400 524d5f46 45415455 52455f44 5350005f RM_FEATURE_DSP._
  0x00003410 5f474e55 435f5749 44455f45 58454355 _GNUC_WIDE_EXECU
  0x00003420 54494f4e 5f434841 52534554 5f4e414d TION_CHARSET_NAM
  0x00003430 45202255 54462d33 324c4522 005f5f55 E "UTF-32LE".__U
  0x00003440 494e545f 46415354 33325f54 5950455f INT_FAST32_TYPE_
  0x00003450 5f20756e 7369676e 65642069 6e74005f _ unsigned int._
  0x00003460 5f44515f 49424954 5f5f2030 005f5f46 _DQ_IBIT__ 0.__F
  0x00003470 4c545f4d 41585f5f 20332e34 30323832 LT_MAX__ 3.40282
  0x00003480 33343636 33383532 38383665 2b333846 34663852886e+38F
  0x00003490 005f5f46 4c543332 5f4d494e 5f5f2031 .__FLT32_MIN__ 1
  0x000034a0 2e313735 34393433 35303832 32323837 .175494350822287
  0x000034b0 35652d33 38463332 005f5f53 495a455f 5e-38F32.__SIZE_
  0x000034c0 54595045 5f5f2075 6e736967 6e656420 TYPE__ unsigned 
  0x000034d0 696e7400 5f5f4154 46494c45 5f564953 int.__ATFILE_VIS
  0x000034e0 49424c45 2031005f 5f554c4c 41434355 IBLE 1.__ULLACCU
  0x000034f0 4d5f4642 49545f5f 20333200 756e7369 M_FBIT__ 32.unsi
  0x00003500 676e6564 202b3000 5f5f464c 5436345f gned +0.__FLT64_
  0x00003510 4d494e5f 4558505f 5f20282d 31303231 MIN_EXP__ (-1021
  0x00003520 29005f5f 45585000 494e5436 345f4328 ).__EXP.INT64_C(
  0x00003530 7829205f 5f494e54 36345f43 28782900 x) __INT64_C(x).
  0x00003540 5f5f4652 4143545f 46424954 5f5f2031 __FRACT_FBIT__ 1
  0x00003550 35005f50 4f534958 5f534f55 52434520 5._POSIX_SOURCE 
  0x00003560 31005f5f 5f696e74 5f6c6561 7374385f 1.___int_least8_
  0x00003570 745f6465 66696e65 64203100 494e545f t_defined 1.INT_
  0x00003580 46415354 33325f4d 41582028 5f5f494e FAST32_MAX (__IN
  0x00003590 545f4641 53543332 5f4d4158 5f5f2900 T_FAST32_MAX__).
  0x000035a0 5f5f5554 415f4942 49545f5f 20363400 __UTA_IBIT__ 64.
  0x000035b0 5f5f464c 545f4d49 4e5f3130 5f455850 __FLT_MIN_10_EXP
  0x000035c0 5f5f2028 2d333729 005f5f46 4c545f49 __ (-37).__FLT_I
  0x000035d0 535f4945 435f3630 3535395f 5f203100 S_IEC_60559__ 1.
  0x000035e0 5f5f464c 54333258 5f455053 494c4f4e __FLT32X_EPSILON
  0x000035f0 5f5f2032 2e323230 34343630 34393235 __ 2.22044604925
  0x00003600 30333133 31652d31 36463332 78005f5f 03131e-16F32x.__
  0x00003610 464c545f 4556414c 5f4d4554 484f445f FLT_EVAL_METHOD_
  0x00003620 54535f31 38363631 5f335f5f 2030005f TS_18661_3__ 0._
  0x00003630 5f44424c 5f484153 5f494e46 494e4954 _DBL_HAS_INFINIT
  0x00003640 595f5f20 31005f5f 494e545f 46415354 Y__ 1.__INT_FAST
  0x00003650 33325f54 5950455f 5f20696e 74005f5f 32_TYPE__ int.__
  0x00003660 464c545f 4841535f 51554945 545f4e41 FLT_HAS_QUIET_NA
  0x00003670 4e5f5f20 31005f5f 55494e54 5f4c4541 N__ 1.__UINT_LEA
  0x00003680 5354385f 4d41585f 5f203078 6666005f ST8_MAX__ 0xff._
  0x00003690 5f494e54 4d41585f 54595045 5f5f206c _INTMAX_TYPE__ l
  0x000036a0 6f6e6720 6c6f6e67 20696e74 005f494e ong long int._IN
  0x000036b0 5433325f 45515f4c 4f4e4720 005f5f49 T32_EQ_LONG .__I
  0x000036c0 4e544d41 585f4328 63292063 20232320 NTMAX_C(c) c ## 
  0x000036d0 4c4c005f 5f41524d 5f464541 54555245 LL.__ARM_FEATURE
  0x000036e0 5f465031 365f5645 43544f52 5f415249 _FP16_VECTOR_ARI
  0x000036f0 54484d45 54494300 5f5f4150 43535f33 THMETIC.__APCS_3
  0x00003700 325f5f20 31005f55 494e5438 5f545f44 2__ 1._UINT8_T_D
  0x00003710 45434c41 52454420 00494e54 4d41585f ECLARED .INTMAX_
  0x00003720 43287829 205f5f49 4e544d41 585f4328 C(x) __INTMAX_C(
  0x00003730 7829005f 5f44424c 5f44454e 4f524d5f x).__DBL_DENORM_
  0x00003740 4d494e5f 5f202828 646f7562 6c652934 MIN__ ((double)4
  0x00003750 2e393430 36353634 35383431 32343635 .940656458412465
  0x00003760 34652d33 32344c29 005f5f55 494e5436 4e-324L).__UINT6
  0x00003770 345f5459 50455f5f 206c6f6e 67206c6f 4_TYPE__ long lo
  0x00003780 6e672075 6e736967 6e656420 696e7400 ng unsigned int.
  0x00003790 494e544d 41585f4d 41582028 5f5f494e INTMAX_MAX (__IN
  0x000037a0 544d4158 5f4d4158 5f5f2900 665f7074 TMAX_MAX__).f_pt
  0x000037b0 7231005f 5f44424c 5f4d4158 5f31305f r1.__DBL_MAX_10_
  0x000037c0 4558505f 5f203330 38005f5f 464c5433 EXP__ 308.__FLT3
  0x000037d0 32585f4d 494e5f5f 20322e32 32353037 2X_MIN__ 2.22507
  0x000037e0 33383538 35303732 30313465 2d333038 38585072014e-308
  0x000037f0 46333278 0073686f 72742075 6e736967 F32x.short unsig
  0x00003800 6e656420 696e7400 494e5438 5f4d494e ned int.INT8_MIN
  0x00003810 20282d5f 5f494e54 385f4d41 585f5f20  (-__INT8_MAX__ 
  0x00003820 2d203129 005f5f54 415f4942 49545f5f - 1).__TA_IBIT__
  0x00003830 20363400 5f5f5151 5f464249 545f5f20  64.__QQ_FBIT__ 
  0x00003840 37004861 72644661 756c745f 48616e64 7.HardFault_Hand
  0x00003850 6c657200 5f5f5645 5253494f 4e5f5f20 ler.__VERSION__ 
  0x00003860 2231332e 332e3120 32303234 30363134 "13.3.1 20240614
  0x00003870 22005f5f 696e745f 66617374 36345f74 ".__int_fast64_t
  0x00003880 5f646566 696e6564 2031005f 494e5450 _defined 1._INTP
  0x00003890 54525f54 5f444543 4c415245 4420005f TR_T_DECLARED ._
  0x000038a0 5f55494e 545f4c45 41535431 365f5459 _UINT_LEAST16_TY
  0x000038b0 50455f5f 2073686f 72742075 6e736967 PE__ short unsig
  0x000038c0 6e656420 696e7400 494e545f 46415354 ned int.INT_FAST
  0x000038d0 385f4d41 5820285f 5f494e54 5f464153 8_MAX (__INT_FAS
  0x000038e0 54385f4d 41585f5f 29005f5f 494e545f T8_MAX__).__INT_
  0x000038f0 46415354 385f5749 4454485f 5f203332 FAST8_WIDTH__ 32
  0x00003900 00505452 44494646 5f4d494e 20282d50 .PTRDIFF_MIN (-P
  0x00003910 54524449 46465f4d 4158202d 20312900 TRDIFF_MAX - 1).
  0x00003920 5f5f464c 545f4d49 4e5f4558 505f5f20 __FLT_MIN_EXP__ 
  0x00003930 282d3132 3529005f 5f474343 5f41544f (-125).__GCC_ATO
  0x00003940 4d49435f 424f4f4c 5f4c4f43 4b5f4652 MIC_BOOL_LOCK_FR
  0x00003950 45452031 0057494e 545f4d41 5820285f EE 1.WINT_MAX (_
  0x00003960 5f57494e 545f4d41 585f5f29 005f5f44 _WINT_MAX__).__D
  0x00003970 4543494d 414c5f44 49475f5f 20313700 ECIMAL_DIG__ 17.
  0x00003980 5f5f494e 5433325f 43286329 20632023 __INT32_C(c) c #
  0x00003990 23204c00 5f494e54 36345f54 5f444543 # L._INT64_T_DEC
  0x000039a0 4c415245 4420005f 5f41524d 5f464541 LARED .__ARM_FEA
  0x000039b0 54555245 5f504155 5448005f 5f4c4442 TURE_PAUTH.__LDB
  0x000039c0 4c5f4d41 585f3130 5f455850 5f5f2033 L_MAX_10_EXP__ 3
  0x000039d0 3038005f 5f464c54 3332585f 4d41585f 08.__FLT32X_MAX_
  0x000039e0 31305f45 58505f5f 20333038 005f5f55 10_EXP__ 308.__U
  0x000039f0 494e5450 54525f4d 41585f5f 20307866 INTPTR_MAX__ 0xf
  0x00003a00 66666666 66666655 005f5f44 424c5f48 fffffffU.__DBL_H
  0x00003a10 41535f44 454e4f52 4d5f5f20 31005f5f AS_DENORM__ 1.__
  0x00003a20 474e5543 5f455845 43555449 4f4e5f43 GNUC_EXECUTION_C
  0x00003a30 48415253 45545f4e 414d4520 22555446 HARSET_NAME "UTF
  0x00003a40 2d382200 5f5f6861 76655f6c 6f6e676c -8".__have_longl
  0x00003a50 6f6e6736 34203100 55494e54 385f4d41 ong64 1.UINT8_MA
  0x00003a60 5820285f 5f55494e 54385f4d 41585f5f X (__UINT8_MAX__
  0x00003a70 29005f5f 41524d5f 46454154 5552455f ).__ARM_FEATURE_
  0x00003a80 43524333 32005f5f 464c5433 325f4d41 CRC32.__FLT32_MA
  0x00003a90 585f3130 5f455850 5f5f2033 38005f5f X_10_EXP__ 38.__
  0x00003aa0 41524d5f 46454154 5552455f 434c5a00 ARM_FEATURE_CLZ.
  0x00003ab0 5f5f4c46 52414354 5f4d4158 5f5f2030 __LFRACT_MAX__ 0
  0x00003ac0 58374646 46464646 46502d33 314c5200 X7FFFFFFFP-31LR.
  0x00003ad0 494e5438 5f432878 29205f5f 494e5438 INT8_C(x) __INT8
  0x00003ae0 5f432878 29005f5f 494e545f 4c454153 _C(x).__INT_LEAS
  0x00003af0 5433325f 4d41585f 5f203078 37666666 T32_MAX__ 0x7fff
  0x00003b00 66666666 4c005549 4e545f46 41535431 ffffL.UINT_FAST1
  0x00003b10 365f4d41 5820285f 5f55494e 545f4641 6_MAX (__UINT_FA
  0x00003b20 53543136 5f4d4158 5f5f2900 6c6f6e67 ST16_MAX__).long
  0x00003b30 202b3400 5f5f4743 435f4154 4f4d4943  +4.__GCC_ATOMIC
  0x00003b40 5f4c4f4e 475f4c4f 434b5f46 52454520 _LONG_LOCK_FREE 
  0x00003b50 31005f5f 55494e54 4d41585f 4d41585f 1.__UINTMAX_MAX_
  0x00003b60 5f203078 66666666 66666666 66666666 _ 0xffffffffffff
  0x00003b70 66666666 554c4c00 5f5f5349 475f4154 ffffULL.__SIG_AT
  0x00003b80 4f4d4943 5f545950 455f5f20 696e7400 OMIC_TYPE__ int.
  0x00003b90 5f5f4c4c 46524143 545f4d49 4e5f5f20 __LLFRACT_MIN__ 
  0x00003ba0 282d302e 354c4c52 2d302e35 4c4c5229 (-0.5LLR-0.5LLR)
  0x00003bb0 005f5f55 4c4c4652 4143545f 45505349 .__ULLFRACT_EPSI
  0x00003bc0 4c4f4e5f 5f203078 31502d36 34554c4c LON__ 0x1P-64ULL
  0x00003bd0 52005f5f 4c44424c 5f484153 5f44454e R.__LDBL_HAS_DEN
  0x00003be0 4f524d5f 5f203100 5f5f4152 4d5f4645 ORM__ 1.__ARM_FE
  0x00003bf0 41545552 455f4c44 52455800 5f5f4c44 ATURE_LDREX.__LD
  0x00003c00 424c5f4e 4f524d5f 4d41585f 5f20312e BL_NORM_MAX__ 1.
  0x00003c10 37393736 39333133 34383632 33313537 7976931348623157
  0x00003c20 652b3330 384c005f 5f554c4c 41434355 e+308L.__ULLACCU
  0x00003c30 4d5f4550 53494c4f 4e5f5f20 30783150 M_EPSILON__ 0x1P
  0x00003c40 2d333255 4c4c4b00 5f5f5553 41434355 -32ULLK.__USACCU
  0x00003c50 4d5f4642 49545f5f 2038005f 5f464c54 M_FBIT__ 8.__FLT
  0x00003c60 5f484153 5f44454e 4f524d5f 5f203100 _HAS_DENORM__ 1.
  0x00003c70 5f5f494e 545f4641 53543634 5f574944 __INT_FAST64_WID
  0x00003c80 54485f5f 20363400 5f5f4442 4c5f4445 TH__ 64.__DBL_DE
  0x00003c90 43494d41 4c5f4449 475f5f20 313700   CIMAL_DIG__ 17.

Contents of the .debug_frame section (loaded from temp/firmware_disassembly.txt.o):


00000000 0000000c ffffffff CIE
  Version:               1
  Augmentation:          ""
  Code alignment factor: 2
  Data alignment factor: -4
  Return address column: 14

  DW_CFA_def_cfa: r13 ofs 0

00000010 0000001c 00000000 FDE cie=00000000 pc=00000000..00000018
  DW_CFA_advance_loc: 4 to 00000004
  DW_CFA_def_cfa_offset: 4
  DW_CFA_offset: r11 at cfa-4
  DW_CFA_advance_loc: 4 to 00000008
  DW_CFA_def_cfa_register: r11
  DW_CFA_advance_loc: 8 to 00000010
  DW_CFA_def_cfa_register: r13
  DW_CFA_advance_loc: 4 to 00000014
  DW_CFA_restore: r11
  DW_CFA_def_cfa_offset: 0
  DW_CFA_nop

00000030 0000001c 00000000 FDE cie=00000000 pc=00000018..000000fc
  DW_CFA_advance_loc: 4 to 0000001c
  DW_CFA_def_cfa_offset: 4
  DW_CFA_offset: r11 at cfa-4
  DW_CFA_advance_loc: 4 to 00000020
  DW_CFA_def_cfa_register: r11
  DW_CFA_advance_loc1: 212 to 000000f4
  DW_CFA_def_cfa_register: r13
  DW_CFA_advance_loc: 4 to 000000f8
  DW_CFA_restore: r11
  DW_CFA_def_cfa_offset: 0

00000050 00000018 00000000 FDE cie=00000000 pc=000000fc..00000144
  DW_CFA_advance_loc: 4 to 00000100
  DW_CFA_def_cfa_offset: 8
  DW_CFA_offset: r11 at cfa-8
  DW_CFA_offset: r14 at cfa-4
  DW_CFA_advance_loc: 4 to 00000104
  DW_CFA_def_cfa: r11 ofs 4
  DW_CFA_nop

